; Listing generated by Microsoft (R) Optimizing Compiler Version 19.42.34435.0 

	TITLE	C:\Users\gvent\OneDrive\Desktop\KPO\Lab1\Lab1\Debug\MonthUtils.obj
	.686P
	.XMM
	include listing.inc
	.model	flat

INCLUDELIB MSVCRTD
INCLUDELIB OLDNAMES

msvcjmc	SEGMENT
__3A77C584_concurrencysal@h DB 01H
__7D61E6FE_sal@h DB 01H
__F85DFF2E_vadefs@h DB 01H
__E62C82FD_vcruntime@h DB 01H
__02F1C7E0_xkeycheck@h DB 01H
__0731AE6E_yvals_core@h DB 01H
__F8F3CAFF___msvc_sanitizer_annotate_container@hpp DB 01H
__1B0272D9_corecrt@h DB 01H
__BCF39F11_vcruntime_new@h DB 01H
__86CDF331_vcruntime_new_debug@h DB 01H
__935DC21B_crtdbg@h DB 01H
__C5864FDA_crtdefs@h DB 01H
__7A030B0F_use_ansi@h DB 01H
__E86563A2_yvals@h DB 01H
__44420885_corecrt_stdio_config@h DB 01H
__AB601D8D_corecrt_wstdio@h DB 01H
__C1EC35D3_stdio@h DB 01H
__6F38426A_cstdio DB 01H
__61CC25A1_errno@h DB 01H
__731D38DD_vcruntime_string@h DB 01H
__E4C945B4_corecrt_memcpy_s@h DB 01H
__8EAFF484_corecrt_memory@h DB 01H
__6490AEC5_corecrt_wstring@h DB 01H
__E8295E1E_string@h DB 01H
__12B77DFD_cstring DB 01H
__EF1F6BBA_corecrt_wconio@h DB 01H
__74484FB3_corecrt_wctype@h DB 01H
__3D1D430C_corecrt_wdirect@h DB 01H
__8ECB7138_corecrt_share@h DB 01H
__DB7FEBA6_corecrt_wio@h DB 01H
__9A9F0068_corecrt_wprocess@h DB 01H
__E2E33A61_corecrt_wstdlib@h DB 01H
__369A9BC3_corecrt_wtime@h DB 01H
__CE789B9D_types@h DB 01H
__9901C817_stat@h DB 01H
__3FCAD62E_wchar@h DB 01H
__F5B39439_cwchar DB 01H
__810D3946_xtr1common DB 01H
__B673110F_iosfwd DB 01H
__13F5961F_stddef@h DB 01H
__FBEE0FB0_cstddef DB 01H
__20B1B3B7_initializer_list DB 01H
__80509148_stdint@h DB 01H
__E37B3460_cstdint DB 01H
__4C58012B_type_traits DB 01H
__69285096_utility DB 01H
__9DF8D3B1___msvc_iter_core@hpp DB 01H
__3E26BF77_limits@h DB 01H
__DACAF7EF_climits DB 01H
__BB16330F_corecrt_math@h DB 01H
__3BF2A406_math@h DB 01H
__45DED006_corecrt_malloc@h DB 01H
__FD6DBD68_corecrt_search@h DB 01H
__6E5ACABA_stdlib@h DB 01H
__5E25D51D_cstdlib DB 01H
__EC88E9B5_xutility DB 01H
__39B162D3___msvc_string_view@hpp DB 01H
__B9985323_float@h DB 01H
__1C7C89ED_cfloat DB 01H
__020D51C1_intrin0@inl@h DB 01H
__DCABF6D1_intrin0@h DB 01H
__7A9AC489_limits DB 01H
__FA77ED4C_malloc@h DB 01H
__89766DA4_corecrt_terminate@h DB 01H
__412BB509_eh@h DB 01H
__8E23F663_vcruntime_exception@h DB 01H
__0DD9214C_exception DB 01H
__8483113F_new DB 01H
__07D5AD9A_xatomic@h DB 01H
__03BD3355_xmemory DB 01H
__776EB5C9_xstring DB 01H
__1EC467ED_ctype@h DB 01H
__60F3A5CD_cctype DB 01H
__B2E74E9B_string DB 01H
__FFBC5EC9_MonthUtils@h DB 01H
__8ED5CA96_YearUtils@h DB 01H
__1FDBE849_cmath DB 01H
__FD245EF5_iterator DB 01H
__F7972D0B_share@h DB 01H
__CB3B79BB___msvc_system_error_abi@hpp DB 01H
__F2193691_cerrno DB 01H
__84971B11_stdexcept DB 01H
__44A9703E_xcall_once@h DB 01H
__40F076AD_xerrc@h DB 01H
__5F635487___msvc_threads_core@hpp DB 01H
__0A9237D2_time@h DB 01H
__D9687441_ctime DB 01H
__5A4C0AF4_xtimec@h DB 01H
__1B4D3CBC_xthreads@h DB 01H
__11AF984B_atomic DB 01H
__FBF4621E_system_error DB 01H
__8916352E_vcruntime_typeinfo@h DB 01H
__9C571AAC_typeinfo DB 01H
__C634C807_memory DB 01H
__EA719F08_xfacet DB 01H
__0FD15498___msvc_xlocinfo_types@hpp DB 01H
__791C33B7_locale@h DB 01H
__CD8909CC_clocale DB 01H
__83DEF964_xlocinfo DB 01H
__A850C1F8_xlocale DB 01H
__BA3B8E77_xiosbase DB 01H
__8637A3AD_streambuf DB 01H
__36D7A7EF_xlocnum DB 01H
__7C4E2B29_ios DB 01H
__BB401B3C_ostream DB 01H
__D8902E06_istream DB 01H
__8EF193AA_iostream DB 01H
__E5840863_MonthUtils@cpp DB 01H
msvcjmc	ENDS
PUBLIC	?__empty_global_delete@@YAXPAX@Z		; __empty_global_delete
PUBLIC	?__empty_global_delete@@YAXPAXI@Z		; __empty_global_delete
PUBLIC	??2@YAPAXIPAX@Z					; operator new
PUBLIC	?copy@?$_Char_traits@DH@std@@SAPADQADQBDI@Z	; std::_Char_traits<char,int>::copy
PUBLIC	?length@?$_Narrow_char_traits@DH@std@@SAIQBD@Z	; std::_Narrow_char_traits<char,int>::length
PUBLIC	?assign@?$_Narrow_char_traits@DH@std@@SAXAADABD@Z ; std::_Narrow_char_traits<char,int>::assign
PUBLIC	?eq_int_type@?$_Narrow_char_traits@DH@std@@SA_NHH@Z ; std::_Narrow_char_traits<char,int>::eq_int_type
PUBLIC	?eof@?$_Narrow_char_traits@DH@std@@SAHXZ	; std::_Narrow_char_traits<char,int>::eof
PUBLIC	??0exception@std@@QAE@QBDH@Z			; std::exception::exception
PUBLIC	??0exception@std@@QAE@ABV01@@Z			; std::exception::exception
PUBLIC	??1exception@std@@UAE@XZ			; std::exception::~exception
PUBLIC	?what@exception@std@@UBEPBDXZ			; std::exception::what
PUBLIC	??_Gexception@std@@UAEPAXI@Z			; std::exception::`scalar deleting destructor'
PUBLIC	??0bad_alloc@std@@AAE@QBD@Z			; std::bad_alloc::bad_alloc
PUBLIC	??1bad_alloc@std@@UAE@XZ			; std::bad_alloc::~bad_alloc
PUBLIC	??0bad_alloc@std@@QAE@ABV01@@Z			; std::bad_alloc::bad_alloc
PUBLIC	??_Gbad_alloc@std@@UAEPAXI@Z			; std::bad_alloc::`scalar deleting destructor'
PUBLIC	??0bad_array_new_length@std@@QAE@XZ		; std::bad_array_new_length::bad_array_new_length
PUBLIC	??1bad_array_new_length@std@@UAE@XZ		; std::bad_array_new_length::~bad_array_new_length
PUBLIC	??0bad_array_new_length@std@@QAE@ABV01@@Z	; std::bad_array_new_length::bad_array_new_length
PUBLIC	??_Gbad_array_new_length@std@@UAEPAXI@Z		; std::bad_array_new_length::`scalar deleting destructor'
PUBLIC	?_Throw_bad_array_new_length@std@@YAXXZ		; std::_Throw_bad_array_new_length
PUBLIC	?_Allocate@_Default_allocate_traits@std@@SAPAXI@Z ; std::_Default_allocate_traits::_Allocate
PUBLIC	?_Adjust_manually_vector_aligned@std@@YAXAAPAXAAI@Z ; std::_Adjust_manually_vector_aligned
PUBLIC	??0_Container_proxy@std@@QAE@PAU_Container_base12@1@@Z ; std::_Container_proxy::_Container_proxy
PUBLIC	??0_Container_base12@std@@QAE@XZ		; std::_Container_base12::_Container_base12
PUBLIC	?_Orphan_all@_Container_base12@std@@QAEXXZ	; std::_Container_base12::_Orphan_all
PUBLIC	?_Orphan_all_unlocked_v3@_Container_base12@std@@AAEXXZ ; std::_Container_base12::_Orphan_all_unlocked_v3
PUBLIC	?_Orphan_all_locked_v3@_Container_base12@std@@AAEXXZ ; std::_Container_base12::_Orphan_all_locked_v3
PUBLIC	??$exchange@PAU_Iterator_base12@std@@$$T@std@@YAPAU_Iterator_base12@0@AAPAU10@$$QA$$T@Z ; std::exchange<std::_Iterator_base12 *,std::nullptr_t>
PUBLIC	?_Release@_Basic_container_proxy_ptr12@std@@QAEXXZ ; std::_Basic_container_proxy_ptr12::_Release
PUBLIC	??0_Basic_container_proxy_ptr12@std@@IAE@XZ	; std::_Basic_container_proxy_ptr12::_Basic_container_proxy_ptr12
PUBLIC	??$addressof@U_Container_base12@std@@@std@@YAPAU_Container_base12@0@AAU10@@Z ; std::addressof<std::_Container_base12>
PUBLIC	??$_Construct_in_place@U_Container_proxy@std@@PAU_Container_base12@2@@std@@YAXAAU_Container_proxy@0@$$QAPAU_Container_base12@0@@Z ; std::_Construct_in_place<std::_Container_proxy,std::_Container_base12 *>
PUBLIC	?_Xlen_string@std@@YAXXZ			; std::_Xlen_string
PUBLIC	??0?$allocator@D@std@@QAE@XZ			; std::allocator<char>::allocator<char>
PUBLIC	?deallocate@?$allocator@D@std@@QAEXQADI@Z	; std::allocator<char>::deallocate
PUBLIC	?allocate@?$allocator@D@std@@QAEPADI@Z		; std::allocator<char>::allocate
PUBLIC	?max_size@?$_Default_allocator_traits@V?$allocator@D@std@@@std@@SAIABV?$allocator@D@2@@Z ; std::_Default_allocator_traits<std::allocator<char> >::max_size
PUBLIC	?select_on_container_copy_construction@?$_Default_allocator_traits@V?$allocator@D@std@@@std@@SA?AV?$allocator@D@2@ABV32@@Z ; std::_Default_allocator_traits<std::allocator<char> >::select_on_container_copy_construction
PUBLIC	??0?$_String_val@U?$_Simple_types@D@std@@@std@@QAE@XZ ; std::_String_val<std::_Simple_types<char> >::_String_val<std::_Simple_types<char> >
PUBLIC	?_Myptr@?$_String_val@U?$_Simple_types@D@std@@@std@@QBEPBDXZ ; std::_String_val<std::_Simple_types<char> >::_Myptr
PUBLIC	?_Large_mode_engaged@?$_String_val@U?$_Simple_types@D@std@@@std@@QBE_NXZ ; std::_String_val<std::_Simple_types<char> >::_Large_mode_engaged
PUBLIC	??0_Bxty@?$_String_val@U?$_Simple_types@D@std@@@std@@QAE@XZ ; std::_String_val<std::_Simple_types<char> >::_Bxty::_Bxty
PUBLIC	??1_Bxty@?$_String_val@U?$_Simple_types@D@std@@@std@@QAE@XZ ; std::_String_val<std::_Simple_types<char> >::_Bxty::~_Bxty
PUBLIC	?_Switch_to_buf@_Bxty@?$_String_val@U?$_Simple_types@D@std@@@std@@QAEXXZ ; std::_String_val<std::_Simple_types<char> >::_Bxty::_Switch_to_buf
PUBLIC	??1?$_String_val@U?$_Simple_types@D@std@@@std@@QAE@XZ ; std::_String_val<std::_Simple_types<char> >::~_String_val<std::_Simple_types<char> >
PUBLIC	??0?$basic_string@DU?$char_traits@D@std@@V?$allocator@D@2@@std@@QAE@ABV01@@Z ; std::basic_string<char,std::char_traits<char>,std::allocator<char> >::basic_string<char,std::char_traits<char>,std::allocator<char> >
PUBLIC	??0?$basic_string@DU?$char_traits@D@std@@V?$allocator@D@2@@std@@QAE@QBD@Z ; std::basic_string<char,std::char_traits<char>,std::allocator<char> >::basic_string<char,std::char_traits<char>,std::allocator<char> >
PUBLIC	?_Deallocate_for_capacity@?$basic_string@DU?$char_traits@D@std@@V?$allocator@D@2@@std@@CAXAAV?$allocator@D@2@QADI@Z ; std::basic_string<char,std::char_traits<char>,std::allocator<char> >::_Deallocate_for_capacity
PUBLIC	??1?$basic_string@DU?$char_traits@D@std@@V?$allocator@D@2@@std@@QAE@XZ ; std::basic_string<char,std::char_traits<char>,std::allocator<char> >::~basic_string<char,std::char_traits<char>,std::allocator<char> >
PUBLIC	?max_size@?$basic_string@DU?$char_traits@D@std@@V?$allocator@D@2@@std@@QBEIXZ ; std::basic_string<char,std::char_traits<char>,std::allocator<char> >::max_size
PUBLIC	?_Calculate_growth@?$basic_string@DU?$char_traits@D@std@@V?$allocator@D@2@@std@@CAIIII@Z ; std::basic_string<char,std::char_traits<char>,std::allocator<char> >::_Calculate_growth
PUBLIC	?_Tidy_deallocate@?$basic_string@DU?$char_traits@D@std@@V?$allocator@D@2@@std@@AAEXXZ ; std::basic_string<char,std::char_traits<char>,std::allocator<char> >::_Tidy_deallocate
PUBLIC	?_Getal@?$basic_string@DU?$char_traits@D@std@@V?$allocator@D@2@@std@@AAEAAV?$allocator@D@2@XZ ; std::basic_string<char,std::char_traits<char>,std::allocator<char> >::_Getal
PUBLIC	?_Getal@?$basic_string@DU?$char_traits@D@std@@V?$allocator@D@2@@std@@ABEABV?$allocator@D@2@XZ ; std::basic_string<char,std::char_traits<char>,std::allocator<char> >::_Getal
PUBLIC	?_Get_first@?$_Compressed_pair@V?$allocator@D@std@@V?$_String_val@U?$_Simple_types@D@std@@@2@$00@std@@QAEAAV?$allocator@D@2@XZ ; std::_Compressed_pair<std::allocator<char>,std::_String_val<std::_Simple_types<char> >,1>::_Get_first
PUBLIC	?_Get_first@?$_Compressed_pair@V?$allocator@D@std@@V?$_String_val@U?$_Simple_types@D@std@@@2@$00@std@@QBEABV?$allocator@D@2@XZ ; std::_Compressed_pair<std::allocator<char>,std::_String_val<std::_Simple_types<char> >,1>::_Get_first
PUBLIC	??1?$_Compressed_pair@V?$allocator@D@std@@V?$_String_val@U?$_Simple_types@D@std@@@2@$00@std@@QAE@XZ ; std::_Compressed_pair<std::allocator<char>,std::_String_val<std::_Simple_types<char> >,1>::~_Compressed_pair<std::allocator<char>,std::_String_val<std::_Simple_types<char> >,1>
PUBLIC	?getMonthName@@YA?AV?$basic_string@DU?$char_traits@D@std@@V?$allocator@D@2@@std@@H@Z ; getMonthName
PUBLIC	?getDateFromDayNumber@@YAXHHAAH0@Z		; getDateFromDayNumber
PUBLIC	?getEventDate@@YAXHHAAH0@Z			; getEventDate
PUBLIC	??$?6U?$char_traits@D@std@@@std@@YAAAV?$basic_ostream@DU?$char_traits@D@std@@@0@AAV10@PBD@Z ; std::operator<<<std::char_traits<char> >
PUBLIC	??$min@I@std@@YAABIABI0@Z			; std::min<unsigned int>
PUBLIC	?allocate@?$allocator@U_Container_proxy@std@@@std@@QAEPAU_Container_proxy@2@I@Z ; std::allocator<std::_Container_proxy>::allocate
PUBLIC	??$_Delete_plain_internal@V?$allocator@U_Container_proxy@std@@@std@@@std@@YAXAAV?$allocator@U_Container_proxy@std@@@0@QAU_Container_proxy@0@@Z ; std::_Delete_plain_internal<std::allocator<std::_Container_proxy> >
PUBLIC	??$_Convert_size@II@std@@YAII@Z			; std::_Convert_size<unsigned int,unsigned int>
PUBLIC	??$?0D@?$allocator@U_Container_proxy@std@@@std@@QAE@ABV?$allocator@D@1@@Z ; std::allocator<std::_Container_proxy>::allocator<std::_Container_proxy><char>
PUBLIC	??$?0V?$allocator@D@std@@$$V@?$_Compressed_pair@V?$allocator@D@std@@V?$_String_val@U?$_Simple_types@D@std@@@2@$00@std@@QAE@U_One_then_variadic_args_t@1@$$QAV?$allocator@D@1@@Z ; std::_Compressed_pair<std::allocator<char>,std::_String_val<std::_Simple_types<char> >,1>::_Compressed_pair<std::allocator<char>,std::_String_val<std::_Simple_types<char> >,1><std::allocator<char> >
PUBLIC	??$?0$$V@?$_Compressed_pair@V?$allocator@D@std@@V?$_String_val@U?$_Simple_types@D@std@@@2@$00@std@@QAE@U_Zero_then_variadic_args_t@1@@Z ; std::_Compressed_pair<std::allocator<char>,std::_String_val<std::_Simple_types<char> >,1>::_Compressed_pair<std::allocator<char>,std::_String_val<std::_Simple_types<char> >,1><>
PUBLIC	??$_Construct@$00PBD@?$basic_string@DU?$char_traits@D@std@@V?$allocator@D@2@@std@@AAEXQBDI@Z ; std::basic_string<char,std::char_traits<char>,std::allocator<char> >::_Construct<1,char const *>
PUBLIC	??$_Construct@$01PBD@?$basic_string@DU?$char_traits@D@std@@V?$allocator@D@2@@std@@AAEXQBDI@Z ; std::basic_string<char,std::char_traits<char>,std::allocator<char> >::_Construct<2,char const *>
PUBLIC	??$_Unfancy@D@std@@YAPADPAD@Z			; std::_Unfancy<char>
PUBLIC	??$_Destroy_in_place@PAD@std@@YAXAAPAD@Z	; std::_Destroy_in_place<char *>
PUBLIC	??$max@I@std@@YAABIABI0@Z			; std::max<unsigned int>
PUBLIC	??$_Deallocate@$07@std@@YAXPAXI@Z		; std::_Deallocate<8>
PUBLIC	??0_Sentry_base@?$basic_ostream@DU?$char_traits@D@std@@@std@@QAE@AAV12@@Z ; std::basic_ostream<char,std::char_traits<char> >::_Sentry_base::_Sentry_base
PUBLIC	??1_Sentry_base@?$basic_ostream@DU?$char_traits@D@std@@@std@@QAE@XZ ; std::basic_ostream<char,std::char_traits<char> >::_Sentry_base::~_Sentry_base
PUBLIC	??0sentry@?$basic_ostream@DU?$char_traits@D@std@@@std@@QAE@AAV12@@Z ; std::basic_ostream<char,std::char_traits<char> >::sentry::sentry
PUBLIC	??1sentry@?$basic_ostream@DU?$char_traits@D@std@@@std@@QAE@XZ ; std::basic_ostream<char,std::char_traits<char> >::sentry::~sentry
PUBLIC	??Bsentry@?$basic_ostream@DU?$char_traits@D@std@@@std@@QBE_NXZ ; std::basic_ostream<char,std::char_traits<char> >::sentry::operator bool
PUBLIC	??$_Deallocate_plain@V?$allocator@U_Container_proxy@std@@@std@@@std@@YAXAAV?$allocator@U_Container_proxy@std@@@0@QAU_Container_proxy@0@@Z ; std::_Deallocate_plain<std::allocator<std::_Container_proxy> >
PUBLIC	??0?$_Container_proxy_ptr12@V?$allocator@U_Container_proxy@std@@@std@@@std@@QAE@AAV?$allocator@U_Container_proxy@std@@@1@AAU_Container_base12@1@@Z ; std::_Container_proxy_ptr12<std::allocator<std::_Container_proxy> >::_Container_proxy_ptr12<std::allocator<std::_Container_proxy> >
PUBLIC	??1?$_Container_proxy_ptr12@V?$allocator@U_Container_proxy@std@@@std@@@std@@QAE@XZ ; std::_Container_proxy_ptr12<std::allocator<std::_Container_proxy> >::~_Container_proxy_ptr12<std::allocator<std::_Container_proxy> >
PUBLIC	??$_Unfancy@U_Container_proxy@std@@@std@@YAPAU_Container_proxy@0@PAU10@@Z ; std::_Unfancy<std::_Container_proxy>
PUBLIC	??$_Allocate_for_capacity@$0A@@?$basic_string@DU?$char_traits@D@std@@V?$allocator@D@2@@std@@CAPADAAV?$allocator@D@1@AAI@Z ; std::basic_string<char,std::char_traits<char>,std::allocator<char> >::_Allocate_for_capacity<0>
PUBLIC	??$_Construct_in_place@PADABQAD@std@@YAXAAPADABQAD@Z ; std::_Construct_in_place<char *,char * const &>
PUBLIC	??$addressof@PAD@std@@YAPAPADAAPAD@Z		; std::addressof<char *>
PUBLIC	??$addressof@V?$basic_ostream@DU?$char_traits@D@std@@@std@@@std@@YAPAV?$basic_ostream@DU?$char_traits@D@std@@@0@AAV10@@Z ; std::addressof<std::basic_ostream<char,std::char_traits<char> > >
PUBLIC	??$_Get_size_of_n@$07@std@@YAII@Z		; std::_Get_size_of_n<8>
PUBLIC	??$_Allocate@$07U_Default_allocate_traits@std@@@std@@YAPAXI@Z ; std::_Allocate<8,std::_Default_allocate_traits>
PUBLIC	??$_Max_limit@H@std@@YAHXZ			; std::_Max_limit<int>
PUBLIC	??$addressof@U_Container_proxy@std@@@std@@YAPAU_Container_proxy@0@AAU10@@Z ; std::addressof<std::_Container_proxy>
PUBLIC	?deallocate@?$_Default_allocator_traits@V?$allocator@U_Container_proxy@std@@@std@@@std@@SAXAAV?$allocator@U_Container_proxy@std@@@2@QAU_Container_proxy@2@I@Z ; std::_Default_allocator_traits<std::allocator<std::_Container_proxy> >::deallocate
PUBLIC	??$_Allocate_at_least_helper@V?$allocator@D@std@@@std@@YAPADAAV?$allocator@D@0@AAI@Z ; std::_Allocate_at_least_helper<std::allocator<char> >
PUBLIC	??$_Allocate_manually_vector_aligned@U_Default_allocate_traits@std@@@std@@YAPAXI@Z ; std::_Allocate_manually_vector_aligned<std::_Default_allocate_traits>
PUBLIC	??$_Get_size_of_n@$00@std@@YAII@Z		; std::_Get_size_of_n<1>
PUBLIC	__JustMyCode_Default
PUBLIC	??_7exception@std@@6B@				; std::exception::`vftable'
PUBLIC	??_C@_0BC@EOODALEL@Unknown?5exception@		; `string'
PUBLIC	??_7bad_alloc@std@@6B@				; std::bad_alloc::`vftable'
PUBLIC	??_7bad_array_new_length@std@@6B@		; std::bad_array_new_length::`vftable'
PUBLIC	??_C@_0BF@KINCDENJ@bad?5array?5new?5length@	; `string'
PUBLIC	??_R0?AVexception@std@@@8			; std::exception `RTTI Type Descriptor'
PUBLIC	__CT??_R0?AVexception@std@@@8??0exception@std@@QAE@ABV01@@Z12
PUBLIC	__TI3?AVbad_array_new_length@std@@
PUBLIC	__CTA3?AVbad_array_new_length@std@@
PUBLIC	??_R0?AVbad_array_new_length@std@@@8		; std::bad_array_new_length `RTTI Type Descriptor'
PUBLIC	__CT??_R0?AVbad_array_new_length@std@@@8??0bad_array_new_length@std@@QAE@ABV01@@Z12
PUBLIC	??_R0?AVbad_alloc@std@@@8			; std::bad_alloc `RTTI Type Descriptor'
PUBLIC	__CT??_R0?AVbad_alloc@std@@@8??0bad_alloc@std@@QAE@ABV01@@Z12
PUBLIC	?__LINE__Var@?0??_Adjust_manually_vector_aligned@std@@YAXAAPAXAAI@Z@4JA ; `std::_Adjust_manually_vector_aligned'::`1'::__LINE__Var
PUBLIC	??_C@_0BB@FCMFBGOM@invalid?5argument@		; `string'
PUBLIC	??_C@_02DKCKIIND@?$CFs@				; `string'
PUBLIC	??_C@_0GC@KIHIELAM@C?3?2Program?5Files?2Microsoft?5Visu@ ; `string'
PUBLIC	??_C@_1ME@NMPKGKJL@?$AAC?$AA?3?$AA?2?$AAP?$AAr?$AAo?$AAg?$AAr?$AAa?$AAm?$AA?5?$AAF?$AAi?$AAl?$AAe@ ; `string'
PUBLIC	??_C@_11LOCGONAA@@				; `string'
PUBLIC	??_C@_1CG@JNLFBNGN@?$AA?$CC?$AAi?$AAn?$AAv?$AAa?$AAl?$AAi?$AAd?$AA?5?$AAa?$AAr?$AAg?$AAu?$AAm?$AAe@ ; `string'
PUBLIC	??_C@_0BA@JFNIOLAK@string?5too?5long@		; `string'
PUBLIC	??_C@_06BMGEFDJH@?$NP?m?b?$OA?p?$PM@		; `string'
PUBLIC	??_C@_07JBGLOLNM@?T?e?b?p?$OA?k?$PM@		; `string'
PUBLIC	??_C@_04FAAJLMOP@?L?$OA?p?r@			; `string'
PUBLIC	??_C@_06PNLHGGPK@?$MA?o?p?e?k?$PM@		; `string'
PUBLIC	??_C@_03MEHOOJFI@?L?$OA?i@			; `string'
PUBLIC	??_C@_04JPDCCHCO@?H?$PO?m?$PM@			; `string'
PUBLIC	??_C@_04JLLPFLJM@?H?$PO?k?$PM@			; `string'
PUBLIC	??_C@_06JMCJJLBN@?$MA?b?c?s?q?r@		; `string'
PUBLIC	??_C@_08ECPNNGFL@?Q?e?m?r?$PP?a?p?$PM@		; `string'
PUBLIC	??_C@_07KDBBAIGI@?N?j?r?$PP?a?p?$PM@		; `string'
PUBLIC	??_C@_06EKHNJIII@?M?n?$PP?a?p?$PM@		; `string'
PUBLIC	??_C@_07MJKMOEOM@?D?e?j?$OA?a?p?$PM@		; `string'
PUBLIC	??_C@_0BG@HCILLIAJ@?M?e?b?e?p?m?$PL?i?5?m?n?l?e?p?5?l?e?q?$PP?v?$OA@ ; `string'
PUBLIC	??_C@_0CA@LELOEOPI@?M?e?b?e?p?m?$PL?i?5?o?n?p?$PP?d?j?n?b?$PL?i?5?m?n?l?e?p?5?d?m?$PP?4?6@ ; `string'
PUBLIC	??_C@_0DG@KGHKKGBC@null?5pointer?5cannot?5point?5to?5a?5@ ; `string'
PUBLIC	??_C@_1HA@FACCKGGH@?$AA?$CC?$AAn?$AAu?$AAl?$AAl?$AA?5?$AAp?$AAo?$AAi?$AAn?$AAt?$AAe?$AAr?$AA?5?$AAc@ ; `string'
PUBLIC	??_R4exception@std@@6B@				; std::exception::`RTTI Complete Object Locator'
PUBLIC	??_R3exception@std@@8				; std::exception::`RTTI Class Hierarchy Descriptor'
PUBLIC	??_R2exception@std@@8				; std::exception::`RTTI Base Class Array'
PUBLIC	??_R1A@?0A@EA@exception@std@@8			; std::exception::`RTTI Base Class Descriptor at (0,-1,0,64)'
PUBLIC	??_R4bad_array_new_length@std@@6B@		; std::bad_array_new_length::`RTTI Complete Object Locator'
PUBLIC	??_R3bad_array_new_length@std@@8		; std::bad_array_new_length::`RTTI Class Hierarchy Descriptor'
PUBLIC	??_R2bad_array_new_length@std@@8		; std::bad_array_new_length::`RTTI Base Class Array'
PUBLIC	??_R1A@?0A@EA@bad_array_new_length@std@@8	; std::bad_array_new_length::`RTTI Base Class Descriptor at (0,-1,0,64)'
PUBLIC	??_R1A@?0A@EA@bad_alloc@std@@8			; std::bad_alloc::`RTTI Base Class Descriptor at (0,-1,0,64)'
PUBLIC	??_R3bad_alloc@std@@8				; std::bad_alloc::`RTTI Class Hierarchy Descriptor'
PUBLIC	??_R2bad_alloc@std@@8				; std::bad_alloc::`RTTI Base Class Array'
PUBLIC	??_R4bad_alloc@std@@6B@				; std::bad_alloc::`RTTI Complete Object Locator'
EXTRN	??_M@YGXPAXIIP6EX0@Z@Z:PROC			; `eh vector destructor iterator'
EXTRN	??2@YAPAXI@Z:PROC				; operator new
EXTRN	??3@YAXPAXI@Z:PROC				; operator delete
EXTRN	__imp___invalid_parameter:PROC
EXTRN	__imp___CrtDbgReport:PROC
EXTRN	__imp_??0_Lockit@std@@QAE@H@Z:PROC
EXTRN	__imp_??1_Lockit@std@@QAE@XZ:PROC
EXTRN	_memcpy:PROC
EXTRN	_strlen:PROC
EXTRN	?_Xlength_error@std@@YAXPBD@Z:PROC		; std::_Xlength_error
EXTRN	?uncaught_exception@std@@YA_NXZ:PROC		; std::uncaught_exception
EXTRN	___std_exception_copy:PROC
EXTRN	___std_exception_destroy:PROC
EXTRN	??_Eexception@std@@UAEPAXI@Z:PROC		; std::exception::`vector deleting destructor'
EXTRN	??_Ebad_alloc@std@@UAEPAXI@Z:PROC		; std::bad_alloc::`vector deleting destructor'
EXTRN	??_Ebad_array_new_length@std@@UAEPAXI@Z:PROC	; std::bad_array_new_length::`vector deleting destructor'
EXTRN	?isLeapYear@YearUtils@@YA_NH@Z:PROC		; YearUtils::isLeapYear
EXTRN	__imp_?good@ios_base@std@@QBE_NXZ:PROC
EXTRN	__imp_?flags@ios_base@std@@QBEHXZ:PROC
EXTRN	__imp_?width@ios_base@std@@QBE_JXZ:PROC
EXTRN	__imp_?width@ios_base@std@@QAE_J_J@Z:PROC
EXTRN	__imp_?sputc@?$basic_streambuf@DU?$char_traits@D@std@@@std@@QAEHD@Z:PROC
EXTRN	__imp_?sputn@?$basic_streambuf@DU?$char_traits@D@std@@@std@@QAE_JPBD_J@Z:PROC
EXTRN	__imp_?setstate@?$basic_ios@DU?$char_traits@D@std@@@std@@QAEXH_N@Z:PROC
EXTRN	__imp_?tie@?$basic_ios@DU?$char_traits@D@std@@@std@@QBEPAV?$basic_ostream@DU?$char_traits@D@std@@@2@XZ:PROC
EXTRN	__imp_?rdbuf@?$basic_ios@DU?$char_traits@D@std@@@std@@QBEPAV?$basic_streambuf@DU?$char_traits@D@std@@@2@XZ:PROC
EXTRN	__imp_?fill@?$basic_ios@DU?$char_traits@D@std@@@std@@QBEDXZ:PROC
EXTRN	__imp_?_Osfx@?$basic_ostream@DU?$char_traits@D@std@@@std@@QAEXXZ:PROC
EXTRN	__imp_?flush@?$basic_ostream@DU?$char_traits@D@std@@@std@@QAEAAV12@XZ:PROC
EXTRN	@_RTC_CheckStackVars@8:PROC
EXTRN	@__CheckForDebuggerJustMyCode@4:PROC
EXTRN	@__security_check_cookie@4:PROC
EXTRN	__CxxThrowException@8:PROC
EXTRN	__RTC_CheckEsp:PROC
EXTRN	__RTC_InitBase:PROC
EXTRN	__RTC_Shutdown:PROC
EXTRN	___CxxFrameHandler3:PROC
EXTRN	??_7type_info@@6B@:QWORD			; type_info::`vftable'
EXTRN	__imp_?cerr@std@@3V?$basic_ostream@DU?$char_traits@D@std@@@1@A:BYTE
EXTRN	___security_cookie:DWORD
;	COMDAT rtc$TMZ
rtc$TMZ	SEGMENT
__RTC_Shutdown.rtc$TMZ DD FLAT:__RTC_Shutdown
rtc$TMZ	ENDS
;	COMDAT rtc$IMZ
rtc$IMZ	SEGMENT
__RTC_InitBase.rtc$IMZ DD FLAT:__RTC_InitBase
rtc$IMZ	ENDS
;	COMDAT ??_R4bad_alloc@std@@6B@
rdata$r	SEGMENT
??_R4bad_alloc@std@@6B@ DD 00H				; std::bad_alloc::`RTTI Complete Object Locator'
	DD	00H
	DD	00H
	DD	FLAT:??_R0?AVbad_alloc@std@@@8
	DD	FLAT:??_R3bad_alloc@std@@8
rdata$r	ENDS
;	COMDAT ??_R2bad_alloc@std@@8
rdata$r	SEGMENT
??_R2bad_alloc@std@@8 DD FLAT:??_R1A@?0A@EA@bad_alloc@std@@8 ; std::bad_alloc::`RTTI Base Class Array'
	DD	FLAT:??_R1A@?0A@EA@exception@std@@8
rdata$r	ENDS
;	COMDAT ??_R3bad_alloc@std@@8
rdata$r	SEGMENT
??_R3bad_alloc@std@@8 DD 00H				; std::bad_alloc::`RTTI Class Hierarchy Descriptor'
	DD	00H
	DD	02H
	DD	FLAT:??_R2bad_alloc@std@@8
rdata$r	ENDS
;	COMDAT ??_R1A@?0A@EA@bad_alloc@std@@8
rdata$r	SEGMENT
??_R1A@?0A@EA@bad_alloc@std@@8 DD FLAT:??_R0?AVbad_alloc@std@@@8 ; std::bad_alloc::`RTTI Base Class Descriptor at (0,-1,0,64)'
	DD	01H
	DD	00H
	DD	0ffffffffH
	DD	00H
	DD	040H
	DD	FLAT:??_R3bad_alloc@std@@8
rdata$r	ENDS
;	COMDAT ??_R1A@?0A@EA@bad_array_new_length@std@@8
rdata$r	SEGMENT
??_R1A@?0A@EA@bad_array_new_length@std@@8 DD FLAT:??_R0?AVbad_array_new_length@std@@@8 ; std::bad_array_new_length::`RTTI Base Class Descriptor at (0,-1,0,64)'
	DD	02H
	DD	00H
	DD	0ffffffffH
	DD	00H
	DD	040H
	DD	FLAT:??_R3bad_array_new_length@std@@8
rdata$r	ENDS
;	COMDAT ??_R2bad_array_new_length@std@@8
rdata$r	SEGMENT
??_R2bad_array_new_length@std@@8 DD FLAT:??_R1A@?0A@EA@bad_array_new_length@std@@8 ; std::bad_array_new_length::`RTTI Base Class Array'
	DD	FLAT:??_R1A@?0A@EA@bad_alloc@std@@8
	DD	FLAT:??_R1A@?0A@EA@exception@std@@8
rdata$r	ENDS
;	COMDAT ??_R3bad_array_new_length@std@@8
rdata$r	SEGMENT
??_R3bad_array_new_length@std@@8 DD 00H			; std::bad_array_new_length::`RTTI Class Hierarchy Descriptor'
	DD	00H
	DD	03H
	DD	FLAT:??_R2bad_array_new_length@std@@8
rdata$r	ENDS
;	COMDAT ??_R4bad_array_new_length@std@@6B@
rdata$r	SEGMENT
??_R4bad_array_new_length@std@@6B@ DD 00H		; std::bad_array_new_length::`RTTI Complete Object Locator'
	DD	00H
	DD	00H
	DD	FLAT:??_R0?AVbad_array_new_length@std@@@8
	DD	FLAT:??_R3bad_array_new_length@std@@8
rdata$r	ENDS
;	COMDAT ??_R1A@?0A@EA@exception@std@@8
rdata$r	SEGMENT
??_R1A@?0A@EA@exception@std@@8 DD FLAT:??_R0?AVexception@std@@@8 ; std::exception::`RTTI Base Class Descriptor at (0,-1,0,64)'
	DD	00H
	DD	00H
	DD	0ffffffffH
	DD	00H
	DD	040H
	DD	FLAT:??_R3exception@std@@8
rdata$r	ENDS
;	COMDAT ??_R2exception@std@@8
rdata$r	SEGMENT
??_R2exception@std@@8 DD FLAT:??_R1A@?0A@EA@exception@std@@8 ; std::exception::`RTTI Base Class Array'
rdata$r	ENDS
;	COMDAT ??_R3exception@std@@8
rdata$r	SEGMENT
??_R3exception@std@@8 DD 00H				; std::exception::`RTTI Class Hierarchy Descriptor'
	DD	00H
	DD	01H
	DD	FLAT:??_R2exception@std@@8
rdata$r	ENDS
;	COMDAT ??_R4exception@std@@6B@
rdata$r	SEGMENT
??_R4exception@std@@6B@ DD 00H				; std::exception::`RTTI Complete Object Locator'
	DD	00H
	DD	00H
	DD	FLAT:??_R0?AVexception@std@@@8
	DD	FLAT:??_R3exception@std@@8
rdata$r	ENDS
;	COMDAT ??_C@_1HA@FACCKGGH@?$AA?$CC?$AAn?$AAu?$AAl?$AAl?$AA?5?$AAp?$AAo?$AAi?$AAn?$AAt?$AAe?$AAr?$AA?5?$AAc@
CONST	SEGMENT
??_C@_1HA@FACCKGGH@?$AA?$CC?$AAn?$AAu?$AAl?$AAl?$AA?5?$AAp?$AAo?$AAi?$AAn?$AAt?$AAe?$AAr?$AA?5?$AAc@ DB '"'
	DB	00H, 'n', 00H, 'u', 00H, 'l', 00H, 'l', 00H, ' ', 00H, 'p', 00H
	DB	'o', 00H, 'i', 00H, 'n', 00H, 't', 00H, 'e', 00H, 'r', 00H, ' '
	DB	00H, 'c', 00H, 'a', 00H, 'n', 00H, 'n', 00H, 'o', 00H, 't', 00H
	DB	' ', 00H, 'p', 00H, 'o', 00H, 'i', 00H, 'n', 00H, 't', 00H, ' '
	DB	00H, 't', 00H, 'o', 00H, ' ', 00H, 'a', 00H, ' ', 00H, 'b', 00H
	DB	'l', 00H, 'o', 00H, 'c', 00H, 'k', 00H, ' ', 00H, 'o', 00H, 'f'
	DB	00H, ' ', 00H, 'n', 00H, 'o', 00H, 'n', 00H, '-', 00H, 'z', 00H
	DB	'e', 00H, 'r', 00H, 'o', 00H, ' ', 00H, 's', 00H, 'i', 00H, 'z'
	DB	00H, 'e', 00H, '"', 00H, 00H, 00H		; `string'
CONST	ENDS
;	COMDAT ??_C@_0DG@KGHKKGBC@null?5pointer?5cannot?5point?5to?5a?5@
CONST	SEGMENT
??_C@_0DG@KGHKKGBC@null?5pointer?5cannot?5point?5to?5a?5@ DB 'null pointe'
	DB	'r cannot point to a block of non-zero size', 00H ; `string'
CONST	ENDS
;	COMDAT ??_C@_0CA@LELOEOPI@?M?e?b?e?p?m?$PL?i?5?o?n?p?$PP?d?j?n?b?$PL?i?5?m?n?l?e?p?5?d?m?$PP?4?6@
CONST	SEGMENT
??_C@_0CA@LELOEOPI@?M?e?b?e?p?m?$PL?i?5?o?n?p?$PP?d?j?n?b?$PL?i?5?m?n?l?e?p?5?d?m?$PP?4?6@ DB 0cdH
	DB	0e5H, 0e2H, 0e5H, 0f0H, 0edH, 0fbH, 0e9H, ' ', 0efH, 0eeH, 0f0H
	DB	0ffH, 0e4H, 0eaH, 0eeH, 0e2H, 0fbH, 0e9H, ' ', 0edH, 0eeH, 0ecH
	DB	0e5H, 0f0H, ' ', 0e4H, 0edH, 0ffH, '.', 0aH, 00H ; `string'
CONST	ENDS
;	COMDAT ??_C@_0BG@HCILLIAJ@?M?e?b?e?p?m?$PL?i?5?m?n?l?e?p?5?l?e?q?$PP?v?$OA@
CONST	SEGMENT
??_C@_0BG@HCILLIAJ@?M?e?b?e?p?m?$PL?i?5?m?n?l?e?p?5?l?e?q?$PP?v?$OA@ DB 0cdH
	DB	0e5H, 0e2H, 0e5H, 0f0H, 0edH, 0fbH, 0e9H, ' ', 0edH, 0eeH, 0ecH
	DB	0e5H, 0f0H, ' ', 0ecH, 0e5H, 0f1H, 0ffH, 0f6H, 0e0H, 00H ; `string'
CONST	ENDS
;	COMDAT ??_C@_07MJKMOEOM@?D?e?j?$OA?a?p?$PM@
CONST	SEGMENT
??_C@_07MJKMOEOM@?D?e?j?$OA?a?p?$PM@ DB 0c4H, 0e5H, 0eaH, 0e0H, 0e1H, 0f0H
	DB	0fcH, 00H					; `string'
CONST	ENDS
;	COMDAT ??_C@_06EKHNJIII@?M?n?$PP?a?p?$PM@
CONST	SEGMENT
??_C@_06EKHNJIII@?M?n?$PP?a?p?$PM@ DB 0cdH, 0eeH, 0ffH, 0e1H, 0f0H, 0fcH, 00H ; `string'
CONST	ENDS
;	COMDAT ??_C@_07KDBBAIGI@?N?j?r?$PP?a?p?$PM@
CONST	SEGMENT
??_C@_07KDBBAIGI@?N?j?r?$PP?a?p?$PM@ DB 0ceH, 0eaH, 0f2H, 0ffH, 0e1H, 0f0H
	DB	0fcH, 00H					; `string'
CONST	ENDS
;	COMDAT ??_C@_08ECPNNGFL@?Q?e?m?r?$PP?a?p?$PM@
CONST	SEGMENT
??_C@_08ECPNNGFL@?Q?e?m?r?$PP?a?p?$PM@ DB 0d1H, 0e5H, 0edH, 0f2H, 0ffH, 0e1H
	DB	0f0H, 0fcH, 00H				; `string'
CONST	ENDS
;	COMDAT ??_C@_06JMCJJLBN@?$MA?b?c?s?q?r@
CONST	SEGMENT
??_C@_06JMCJJLBN@?$MA?b?c?s?q?r@ DB 0c0H, 0e2H, 0e3H, 0f3H, 0f1H, 0f2H, 00H ; `string'
CONST	ENDS
;	COMDAT ??_C@_04JLLPFLJM@?H?$PO?k?$PM@
CONST	SEGMENT
??_C@_04JLLPFLJM@?H?$PO?k?$PM@ DB 0c8H, 0feH, 0ebH, 0fcH, 00H ; `string'
CONST	ENDS
;	COMDAT ??_C@_04JPDCCHCO@?H?$PO?m?$PM@
CONST	SEGMENT
??_C@_04JPDCCHCO@?H?$PO?m?$PM@ DB 0c8H, 0feH, 0edH, 0fcH, 00H ; `string'
CONST	ENDS
;	COMDAT ??_C@_03MEHOOJFI@?L?$OA?i@
CONST	SEGMENT
??_C@_03MEHOOJFI@?L?$OA?i@ DB 0ccH, 0e0H, 0e9H, 00H	; `string'
CONST	ENDS
;	COMDAT ??_C@_06PNLHGGPK@?$MA?o?p?e?k?$PM@
CONST	SEGMENT
??_C@_06PNLHGGPK@?$MA?o?p?e?k?$PM@ DB 0c0H, 0efH, 0f0H, 0e5H, 0ebH, 0fcH, 00H ; `string'
CONST	ENDS
;	COMDAT ??_C@_04FAAJLMOP@?L?$OA?p?r@
CONST	SEGMENT
??_C@_04FAAJLMOP@?L?$OA?p?r@ DB 0ccH, 0e0H, 0f0H, 0f2H, 00H ; `string'
CONST	ENDS
;	COMDAT ??_C@_07JBGLOLNM@?T?e?b?p?$OA?k?$PM@
CONST	SEGMENT
??_C@_07JBGLOLNM@?T?e?b?p?$OA?k?$PM@ DB 0d4H, 0e5H, 0e2H, 0f0H, 0e0H, 0ebH
	DB	0fcH, 00H					; `string'
CONST	ENDS
;	COMDAT ??_C@_06BMGEFDJH@?$NP?m?b?$OA?p?$PM@
CONST	SEGMENT
??_C@_06BMGEFDJH@?$NP?m?b?$OA?p?$PM@ DB 0dfH, 0edH, 0e2H, 0e0H, 0f0H, 0fcH
	DB	00H						; `string'
CONST	ENDS
;	COMDAT ??_C@_0BA@JFNIOLAK@string?5too?5long@
CONST	SEGMENT
??_C@_0BA@JFNIOLAK@string?5too?5long@ DB 'string too long', 00H ; `string'
CONST	ENDS
;	COMDAT ??_C@_1CG@JNLFBNGN@?$AA?$CC?$AAi?$AAn?$AAv?$AAa?$AAl?$AAi?$AAd?$AA?5?$AAa?$AAr?$AAg?$AAu?$AAm?$AAe@
CONST	SEGMENT
??_C@_1CG@JNLFBNGN@?$AA?$CC?$AAi?$AAn?$AAv?$AAa?$AAl?$AAi?$AAd?$AA?5?$AAa?$AAr?$AAg?$AAu?$AAm?$AAe@ DB '"'
	DB	00H, 'i', 00H, 'n', 00H, 'v', 00H, 'a', 00H, 'l', 00H, 'i', 00H
	DB	'd', 00H, ' ', 00H, 'a', 00H, 'r', 00H, 'g', 00H, 'u', 00H, 'm'
	DB	00H, 'e', 00H, 'n', 00H, 't', 00H, '"', 00H, 00H, 00H ; `string'
CONST	ENDS
;	COMDAT ??_C@_11LOCGONAA@@
CONST	SEGMENT
??_C@_11LOCGONAA@@ DB 00H, 00H				; `string'
CONST	ENDS
;	COMDAT ??_C@_1ME@NMPKGKJL@?$AAC?$AA?3?$AA?2?$AAP?$AAr?$AAo?$AAg?$AAr?$AAa?$AAm?$AA?5?$AAF?$AAi?$AAl?$AAe@
CONST	SEGMENT
??_C@_1ME@NMPKGKJL@?$AAC?$AA?3?$AA?2?$AAP?$AAr?$AAo?$AAg?$AAr?$AAa?$AAm?$AA?5?$AAF?$AAi?$AAl?$AAe@ DB 'C'
	DB	00H, ':', 00H, '\', 00H, 'P', 00H, 'r', 00H, 'o', 00H, 'g', 00H
	DB	'r', 00H, 'a', 00H, 'm', 00H, ' ', 00H, 'F', 00H, 'i', 00H, 'l'
	DB	00H, 'e', 00H, 's', 00H, '\', 00H, 'M', 00H, 'i', 00H, 'c', 00H
	DB	'r', 00H, 'o', 00H, 's', 00H, 'o', 00H, 'f', 00H, 't', 00H, ' '
	DB	00H, 'V', 00H, 'i', 00H, 's', 00H, 'u', 00H, 'a', 00H, 'l', 00H
	DB	' ', 00H, 'S', 00H, 't', 00H, 'u', 00H, 'd', 00H, 'i', 00H, 'o'
	DB	00H, '\', 00H, '2', 00H, '0', 00H, '2', 00H, '2', 00H, '\', 00H
	DB	'C', 00H, 'o', 00H, 'm', 00H, 'm', 00H, 'u', 00H, 'n', 00H, 'i'
	DB	00H, 't', 00H, 'y', 00H, '\', 00H, 'V', 00H, 'C', 00H, '\', 00H
	DB	'T', 00H, 'o', 00H, 'o', 00H, 'l', 00H, 's', 00H, '\', 00H, 'M'
	DB	00H, 'S', 00H, 'V', 00H, 'C', 00H, '\', 00H, '1', 00H, '4', 00H
	DB	'.', 00H, '4', 00H, '2', 00H, '.', 00H, '3', 00H, '4', 00H, '4'
	DB	00H, '3', 00H, '3', 00H, '\', 00H, 'i', 00H, 'n', 00H, 'c', 00H
	DB	'l', 00H, 'u', 00H, 'd', 00H, 'e', 00H, '\', 00H, 'x', 00H, 'm'
	DB	00H, 'e', 00H, 'm', 00H, 'o', 00H, 'r', 00H, 'y', 00H, 00H, 00H ; `string'
CONST	ENDS
;	COMDAT ??_C@_0GC@KIHIELAM@C?3?2Program?5Files?2Microsoft?5Visu@
CONST	SEGMENT
??_C@_0GC@KIHIELAM@C?3?2Program?5Files?2Microsoft?5Visu@ DB 'C:\Program F'
	DB	'iles\Microsoft Visual Studio\2022\Community\VC\Tools\MSVC\14.'
	DB	'42.34433\include\xmemory', 00H		; `string'
CONST	ENDS
;	COMDAT ??_C@_02DKCKIIND@?$CFs@
CONST	SEGMENT
??_C@_02DKCKIIND@?$CFs@ DB '%s', 00H			; `string'
CONST	ENDS
;	COMDAT ??_C@_0BB@FCMFBGOM@invalid?5argument@
CONST	SEGMENT
??_C@_0BB@FCMFBGOM@invalid?5argument@ DB 'invalid argument', 00H ; `string'
CONST	ENDS
;	COMDAT ?__LINE__Var@?0??_Adjust_manually_vector_aligned@std@@YAXAAPAXAAI@Z@4JA
_DATA	SEGMENT
?__LINE__Var@?0??_Adjust_manually_vector_aligned@std@@YAXAAPAXAAI@Z@4JA DD 0a9H ; `std::_Adjust_manually_vector_aligned'::`1'::__LINE__Var
_DATA	ENDS
;	COMDAT __CT??_R0?AVbad_alloc@std@@@8??0bad_alloc@std@@QAE@ABV01@@Z12
xdata$x	SEGMENT
__CT??_R0?AVbad_alloc@std@@@8??0bad_alloc@std@@QAE@ABV01@@Z12 DD 010H
	DD	FLAT:??_R0?AVbad_alloc@std@@@8
	DD	00H
	DD	0ffffffffH
	ORG $+4
	DD	0cH
	DD	FLAT:??0bad_alloc@std@@QAE@ABV01@@Z
xdata$x	ENDS
;	COMDAT ??_R0?AVbad_alloc@std@@@8
data$r	SEGMENT
??_R0?AVbad_alloc@std@@@8 DD FLAT:??_7type_info@@6B@	; std::bad_alloc `RTTI Type Descriptor'
	DD	00H
	DB	'.?AVbad_alloc@std@@', 00H
data$r	ENDS
;	COMDAT __CT??_R0?AVbad_array_new_length@std@@@8??0bad_array_new_length@std@@QAE@ABV01@@Z12
xdata$x	SEGMENT
__CT??_R0?AVbad_array_new_length@std@@@8??0bad_array_new_length@std@@QAE@ABV01@@Z12 DD 00H
	DD	FLAT:??_R0?AVbad_array_new_length@std@@@8
	DD	00H
	DD	0ffffffffH
	ORG $+4
	DD	0cH
	DD	FLAT:??0bad_array_new_length@std@@QAE@ABV01@@Z
xdata$x	ENDS
;	COMDAT ??_R0?AVbad_array_new_length@std@@@8
data$r	SEGMENT
??_R0?AVbad_array_new_length@std@@@8 DD FLAT:??_7type_info@@6B@ ; std::bad_array_new_length `RTTI Type Descriptor'
	DD	00H
	DB	'.?AVbad_array_new_length@std@@', 00H
data$r	ENDS
;	COMDAT __CTA3?AVbad_array_new_length@std@@
xdata$x	SEGMENT
__CTA3?AVbad_array_new_length@std@@ DD 03H
	DD	FLAT:__CT??_R0?AVbad_array_new_length@std@@@8??0bad_array_new_length@std@@QAE@ABV01@@Z12
	DD	FLAT:__CT??_R0?AVbad_alloc@std@@@8??0bad_alloc@std@@QAE@ABV01@@Z12
	DD	FLAT:__CT??_R0?AVexception@std@@@8??0exception@std@@QAE@ABV01@@Z12
xdata$x	ENDS
;	COMDAT __TI3?AVbad_array_new_length@std@@
xdata$x	SEGMENT
__TI3?AVbad_array_new_length@std@@ DD 00H
	DD	FLAT:??1bad_array_new_length@std@@UAE@XZ
	DD	00H
	DD	FLAT:__CTA3?AVbad_array_new_length@std@@
xdata$x	ENDS
;	COMDAT __CT??_R0?AVexception@std@@@8??0exception@std@@QAE@ABV01@@Z12
xdata$x	SEGMENT
__CT??_R0?AVexception@std@@@8??0exception@std@@QAE@ABV01@@Z12 DD 00H
	DD	FLAT:??_R0?AVexception@std@@@8
	DD	00H
	DD	0ffffffffH
	ORG $+4
	DD	0cH
	DD	FLAT:??0exception@std@@QAE@ABV01@@Z
xdata$x	ENDS
;	COMDAT ??_R0?AVexception@std@@@8
data$r	SEGMENT
??_R0?AVexception@std@@@8 DD FLAT:??_7type_info@@6B@	; std::exception `RTTI Type Descriptor'
	DD	00H
	DB	'.?AVexception@std@@', 00H
data$r	ENDS
;	COMDAT ??_C@_0BF@KINCDENJ@bad?5array?5new?5length@
CONST	SEGMENT
??_C@_0BF@KINCDENJ@bad?5array?5new?5length@ DB 'bad array new length', 00H ; `string'
CONST	ENDS
;	COMDAT ??_7bad_array_new_length@std@@6B@
CONST	SEGMENT
??_7bad_array_new_length@std@@6B@ DD FLAT:??_R4bad_array_new_length@std@@6B@ ; std::bad_array_new_length::`vftable'
	DD	FLAT:??_Ebad_array_new_length@std@@UAEPAXI@Z
	DD	FLAT:?what@exception@std@@UBEPBDXZ
CONST	ENDS
;	COMDAT ??_7bad_alloc@std@@6B@
CONST	SEGMENT
??_7bad_alloc@std@@6B@ DD FLAT:??_R4bad_alloc@std@@6B@	; std::bad_alloc::`vftable'
	DD	FLAT:??_Ebad_alloc@std@@UAEPAXI@Z
	DD	FLAT:?what@exception@std@@UBEPBDXZ
CONST	ENDS
;	COMDAT ??_C@_0BC@EOODALEL@Unknown?5exception@
CONST	SEGMENT
??_C@_0BC@EOODALEL@Unknown?5exception@ DB 'Unknown exception', 00H ; `string'
CONST	ENDS
;	COMDAT ??_7exception@std@@6B@
CONST	SEGMENT
??_7exception@std@@6B@ DD FLAT:??_R4exception@std@@6B@	; std::exception::`vftable'
	DD	FLAT:??_Eexception@std@@UAEPAXI@Z
	DD	FLAT:?what@exception@std@@UBEPBDXZ
CONST	ENDS
;	COMDAT voltbl
voltbl	SEGMENT
_volmd	DB	09H
voltbl	ENDS
;	COMDAT xdata$x
xdata$x	SEGMENT
__ehfuncinfo$??$_Deallocate_plain@V?$allocator@U_Container_proxy@std@@@std@@@std@@YAXAAV?$allocator@U_Container_proxy@std@@@0@QAU_Container_proxy@0@@Z DD 019930522H
	DD	00H
	DD	00H
	DD	2 DUP(00H)
	DD	2 DUP(00H)
	DD	00H
	DD	05H
xdata$x	ENDS
;	COMDAT voltbl
voltbl	SEGMENT
_volmd	DB	016H
voltbl	ENDS
;	COMDAT xdata$x
xdata$x	SEGMENT
__unwindtable$??0sentry@?$basic_ostream@DU?$char_traits@D@std@@@std@@QAE@AAV12@@Z DD 0ffffffffH
	DD	FLAT:__unwindfunclet$??0sentry@?$basic_ostream@DU?$char_traits@D@std@@@std@@QAE@AAV12@@Z$0
__ehfuncinfo$??0sentry@?$basic_ostream@DU?$char_traits@D@std@@@std@@QAE@AAV12@@Z DD 019930522H
	DD	01H
	DD	FLAT:__unwindtable$??0sentry@?$basic_ostream@DU?$char_traits@D@std@@@std@@QAE@AAV12@@Z
	DD	2 DUP(00H)
	DD	2 DUP(00H)
	DD	00H
	DD	01H
xdata$x	ENDS
;	COMDAT voltbl
voltbl	SEGMENT
_volmd	DB	09H
voltbl	ENDS
;	COMDAT xdata$x
xdata$x	SEGMENT
__ehfuncinfo$??1_Sentry_base@?$basic_ostream@DU?$char_traits@D@std@@@std@@QAE@XZ DD 019930522H
	DD	00H
	DD	00H
	DD	2 DUP(00H)
	DD	2 DUP(00H)
	DD	00H
	DD	05H
xdata$x	ENDS
;	COMDAT voltbl
voltbl	SEGMENT
_volmd	DB	09H
voltbl	ENDS
;	COMDAT xdata$x
xdata$x	SEGMENT
__ehfuncinfo$??$_Deallocate@$07@std@@YAXPAXI@Z DD 019930522H
	DD	00H
	DD	00H
	DD	2 DUP(00H)
	DD	2 DUP(00H)
	DD	00H
	DD	05H
xdata$x	ENDS
;	COMDAT voltbl
voltbl	SEGMENT
_volmd	DB	016H
	DB	023H
voltbl	ENDS
;	COMDAT voltbl
voltbl	SEGMENT
_volmd	DW	032H
	DW	0190H
voltbl	ENDS
;	COMDAT xdata$x
xdata$x	SEGMENT
__unwindtable$??$_Construct@$01PBD@?$basic_string@DU?$char_traits@D@std@@V?$allocator@D@2@@std@@AAEXQBDI@Z DD 0ffffffffH
	DD	FLAT:__unwindfunclet$??$_Construct@$01PBD@?$basic_string@DU?$char_traits@D@std@@V?$allocator@D@2@@std@@AAEXQBDI@Z$0
__ehfuncinfo$??$_Construct@$01PBD@?$basic_string@DU?$char_traits@D@std@@V?$allocator@D@2@@std@@AAEXQBDI@Z DD 019930522H
	DD	01H
	DD	FLAT:__unwindtable$??$_Construct@$01PBD@?$basic_string@DU?$char_traits@D@std@@V?$allocator@D@2@@std@@AAEXQBDI@Z
	DD	2 DUP(00H)
	DD	2 DUP(00H)
	DD	00H
	DD	01H
xdata$x	ENDS
;	COMDAT voltbl
voltbl	SEGMENT
_volmd	DB	016H
	DB	023H
voltbl	ENDS
;	COMDAT voltbl
voltbl	SEGMENT
_volmd	DW	035H
	DW	01d9H
voltbl	ENDS
;	COMDAT xdata$x
xdata$x	SEGMENT
__unwindtable$??$_Construct@$00PBD@?$basic_string@DU?$char_traits@D@std@@V?$allocator@D@2@@std@@AAEXQBDI@Z DD 0ffffffffH
	DD	FLAT:__unwindfunclet$??$_Construct@$00PBD@?$basic_string@DU?$char_traits@D@std@@V?$allocator@D@2@@std@@AAEXQBDI@Z$0
__ehfuncinfo$??$_Construct@$00PBD@?$basic_string@DU?$char_traits@D@std@@V?$allocator@D@2@@std@@AAEXQBDI@Z DD 019930522H
	DD	01H
	DD	FLAT:__unwindtable$??$_Construct@$00PBD@?$basic_string@DU?$char_traits@D@std@@V?$allocator@D@2@@std@@AAEXQBDI@Z
	DD	2 DUP(00H)
	DD	2 DUP(00H)
	DD	00H
	DD	01H
xdata$x	ENDS
;	COMDAT voltbl
voltbl	SEGMENT
_volmd	DB	016H
	DB	023H
voltbl	ENDS
;	COMDAT voltbl
voltbl	SEGMENT
_volmd	DW	031H
	DW	03feH
voltbl	ENDS
;	COMDAT xdata$x
xdata$x	SEGMENT
__catchsym$??$?6U?$char_traits@D@std@@@std@@YAAAV?$basic_ostream@DU?$char_traits@D@std@@@0@AAV10@PBD@Z$3 DD 040H
	DD	00H
	DD	00H
	DD	FLAT:__catch$??$?6U?$char_traits@D@std@@@std@@YAAAV?$basic_ostream@DU?$char_traits@D@std@@@0@AAV10@PBD@Z$0
__tryblocktable$??$?6U?$char_traits@D@std@@@std@@YAAAV?$basic_ostream@DU?$char_traits@D@std@@@0@AAV10@PBD@Z DD 01H
	DD	01H
	DD	02H
	DD	01H
	DD	FLAT:__catchsym$??$?6U?$char_traits@D@std@@@std@@YAAAV?$basic_ostream@DU?$char_traits@D@std@@@0@AAV10@PBD@Z$3
__unwindtable$??$?6U?$char_traits@D@std@@@std@@YAAAV?$basic_ostream@DU?$char_traits@D@std@@@0@AAV10@PBD@Z DD 0ffffffffH
	DD	FLAT:__unwindfunclet$??$?6U?$char_traits@D@std@@@std@@YAAAV?$basic_ostream@DU?$char_traits@D@std@@@0@AAV10@PBD@Z$2
	DD	00H
	DD	00H
	DD	00H
	DD	00H
__ehfuncinfo$??$?6U?$char_traits@D@std@@@std@@YAAAV?$basic_ostream@DU?$char_traits@D@std@@@0@AAV10@PBD@Z DD 019930522H
	DD	03H
	DD	FLAT:__unwindtable$??$?6U?$char_traits@D@std@@@std@@YAAAV?$basic_ostream@DU?$char_traits@D@std@@@0@AAV10@PBD@Z
	DD	01H
	DD	FLAT:__tryblocktable$??$?6U?$char_traits@D@std@@@std@@YAAAV?$basic_ostream@DU?$char_traits@D@std@@@0@AAV10@PBD@Z
	DD	2 DUP(00H)
	DD	00H
	DD	01H
xdata$x	ENDS
;	COMDAT voltbl
voltbl	SEGMENT
_volmd	DB	0b6H
	DB	0c3H
voltbl	ENDS
;	COMDAT voltbl
voltbl	SEGMENT
_volmd	DW	033H
	DW	01eeH
voltbl	ENDS
;	COMDAT xdata$x
xdata$x	SEGMENT
__ehfuncinfo$?getMonthName@@YA?AV?$basic_string@DU?$char_traits@D@std@@V?$allocator@D@2@@std@@H@Z DD 019930522H
	DD	0dH
	DD	FLAT:__unwindtable$?getMonthName@@YA?AV?$basic_string@DU?$char_traits@D@std@@V?$allocator@D@2@@std@@H@Z
	DD	2 DUP(00H)
	DD	2 DUP(00H)
	DD	00H
	DD	01H
__unwindtable$?getMonthName@@YA?AV?$basic_string@DU?$char_traits@D@std@@V?$allocator@D@2@@std@@H@Z DD 0ffffffffH
	DD	FLAT:__unwindfunclet$?getMonthName@@YA?AV?$basic_string@DU?$char_traits@D@std@@V?$allocator@D@2@@std@@H@Z$13
	DD	00H
	DD	FLAT:__unwindfunclet$?getMonthName@@YA?AV?$basic_string@DU?$char_traits@D@std@@V?$allocator@D@2@@std@@H@Z$0
	DD	01H
	DD	FLAT:__unwindfunclet$?getMonthName@@YA?AV?$basic_string@DU?$char_traits@D@std@@V?$allocator@D@2@@std@@H@Z$1
	DD	02H
	DD	FLAT:__unwindfunclet$?getMonthName@@YA?AV?$basic_string@DU?$char_traits@D@std@@V?$allocator@D@2@@std@@H@Z$2
	DD	03H
	DD	FLAT:__unwindfunclet$?getMonthName@@YA?AV?$basic_string@DU?$char_traits@D@std@@V?$allocator@D@2@@std@@H@Z$3
	DD	04H
	DD	FLAT:__unwindfunclet$?getMonthName@@YA?AV?$basic_string@DU?$char_traits@D@std@@V?$allocator@D@2@@std@@H@Z$4
	DD	05H
	DD	FLAT:__unwindfunclet$?getMonthName@@YA?AV?$basic_string@DU?$char_traits@D@std@@V?$allocator@D@2@@std@@H@Z$5
	DD	06H
	DD	FLAT:__unwindfunclet$?getMonthName@@YA?AV?$basic_string@DU?$char_traits@D@std@@V?$allocator@D@2@@std@@H@Z$6
	DD	07H
	DD	FLAT:__unwindfunclet$?getMonthName@@YA?AV?$basic_string@DU?$char_traits@D@std@@V?$allocator@D@2@@std@@H@Z$7
	DD	08H
	DD	FLAT:__unwindfunclet$?getMonthName@@YA?AV?$basic_string@DU?$char_traits@D@std@@V?$allocator@D@2@@std@@H@Z$8
	DD	09H
	DD	FLAT:__unwindfunclet$?getMonthName@@YA?AV?$basic_string@DU?$char_traits@D@std@@V?$allocator@D@2@@std@@H@Z$9
	DD	0aH
	DD	FLAT:__unwindfunclet$?getMonthName@@YA?AV?$basic_string@DU?$char_traits@D@std@@V?$allocator@D@2@@std@@H@Z$10
	DD	00H
	DD	FLAT:__unwindfunclet$?getMonthName@@YA?AV?$basic_string@DU?$char_traits@D@std@@V?$allocator@D@2@@std@@H@Z$12
xdata$x	ENDS
;	COMDAT voltbl
voltbl	SEGMENT
_volmd	DB	022H
	DB	091H
voltbl	ENDS
;	COMDAT voltbl
voltbl	SEGMENT
_volmd	DB	024H
	DB	0aeH
voltbl	ENDS
;	COMDAT voltbl
voltbl	SEGMENT
_volmd	DB	024H
	DB	093H
voltbl	ENDS
;	COMDAT voltbl
voltbl	SEGMENT
_volmd	DB	09H
voltbl	ENDS
;	COMDAT xdata$x
xdata$x	SEGMENT
__ehfuncinfo$?_Deallocate_for_capacity@?$basic_string@DU?$char_traits@D@std@@V?$allocator@D@2@@std@@CAXAAV?$allocator@D@2@QADI@Z DD 019930522H
	DD	00H
	DD	00H
	DD	2 DUP(00H)
	DD	2 DUP(00H)
	DD	00H
	DD	05H
xdata$x	ENDS
;	COMDAT voltbl
voltbl	SEGMENT
_volmd	DB	016H
voltbl	ENDS
;	COMDAT xdata$x
xdata$x	SEGMENT
__unwindtable$??0?$basic_string@DU?$char_traits@D@std@@V?$allocator@D@2@@std@@QAE@QBD@Z DD 0ffffffffH
	DD	FLAT:__unwindfunclet$??0?$basic_string@DU?$char_traits@D@std@@V?$allocator@D@2@@std@@QAE@QBD@Z$0
__ehfuncinfo$??0?$basic_string@DU?$char_traits@D@std@@V?$allocator@D@2@@std@@QAE@QBD@Z DD 019930522H
	DD	01H
	DD	FLAT:__unwindtable$??0?$basic_string@DU?$char_traits@D@std@@V?$allocator@D@2@@std@@QAE@QBD@Z
	DD	2 DUP(00H)
	DD	2 DUP(00H)
	DD	00H
	DD	01H
xdata$x	ENDS
;	COMDAT voltbl
voltbl	SEGMENT
_volmd	DB	016H
voltbl	ENDS
;	COMDAT xdata$x
xdata$x	SEGMENT
__unwindtable$??0?$basic_string@DU?$char_traits@D@std@@V?$allocator@D@2@@std@@QAE@ABV01@@Z DD 0ffffffffH
	DD	FLAT:__unwindfunclet$??0?$basic_string@DU?$char_traits@D@std@@V?$allocator@D@2@@std@@QAE@ABV01@@Z$0
__ehfuncinfo$??0?$basic_string@DU?$char_traits@D@std@@V?$allocator@D@2@@std@@QAE@ABV01@@Z DD 019930522H
	DD	01H
	DD	FLAT:__unwindtable$??0?$basic_string@DU?$char_traits@D@std@@V?$allocator@D@2@@std@@QAE@ABV01@@Z
	DD	2 DUP(00H)
	DD	2 DUP(00H)
	DD	00H
	DD	01H
xdata$x	ENDS
;	COMDAT voltbl
voltbl	SEGMENT
_volmd	DB	024H
	DB	07aH
voltbl	ENDS
; Function compile flags: /Odt
;	COMDAT __JustMyCode_Default
_TEXT	SEGMENT
__JustMyCode_Default PROC				; COMDAT
  00000	55		 push	 ebp
  00001	8b ec		 mov	 ebp, esp
  00003	5d		 pop	 ebp
  00004	c3		 ret	 0
__JustMyCode_Default ENDP
_TEXT	ENDS
; Function compile flags: /Odtp /RTCsu /ZI
; File C:\Program Files\Microsoft Visual Studio\2022\Community\VC\Tools\MSVC\14.42.34433\include\xmemory
;	COMDAT ??$_Get_size_of_n@$00@std@@YAII@Z
_TEXT	SEGMENT
__Overflow_is_possible$ = -5				; size = 1
__Count$ = 8						; size = 4
??$_Get_size_of_n@$00@std@@YAII@Z PROC			; std::_Get_size_of_n<1>, COMDAT

; 79   : _NODISCARD constexpr size_t _Get_size_of_n(const size_t _Count) {

  00000	55		 push	 ebp
  00001	8b ec		 mov	 ebp, esp
  00003	81 ec cc 00 00
	00		 sub	 esp, 204		; 000000ccH
  00009	53		 push	 ebx
  0000a	56		 push	 esi
  0000b	57		 push	 edi
  0000c	8d 7d f4	 lea	 edi, DWORD PTR [ebp-12]
  0000f	b9 03 00 00 00	 mov	 ecx, 3
  00014	b8 cc cc cc cc	 mov	 eax, -858993460		; ccccccccH
  00019	f3 ab		 rep stosd
  0001b	b9 00 00 00 00	 mov	 ecx, OFFSET __03BD3355_xmemory
  00020	e8 00 00 00 00	 call	 @__CheckForDebuggerJustMyCode@4
  00025	90		 npad	 1

; 80   :     constexpr bool _Overflow_is_possible = _Ty_size > 1;

  00026	c6 45 fb 00	 mov	 BYTE PTR __Overflow_is_possible$[ebp], 0

; 81   : 
; 82   :     if constexpr (_Overflow_is_possible) {
; 83   :         constexpr size_t _Max_possible = static_cast<size_t>(-1) / _Ty_size;
; 84   :         if (_Count > _Max_possible) {
; 85   :             _Throw_bad_array_new_length(); // multiply overflow
; 86   :         }
; 87   :     }
; 88   : 
; 89   :     return _Count * _Ty_size;

  0002a	8b 45 08	 mov	 eax, DWORD PTR __Count$[ebp]

; 90   : }

  0002d	5f		 pop	 edi
  0002e	5e		 pop	 esi
  0002f	5b		 pop	 ebx
  00030	81 c4 cc 00 00
	00		 add	 esp, 204		; 000000ccH
  00036	3b ec		 cmp	 ebp, esp
  00038	e8 00 00 00 00	 call	 __RTC_CheckEsp
  0003d	8b e5		 mov	 esp, ebp
  0003f	5d		 pop	 ebp
  00040	c3		 ret	 0
??$_Get_size_of_n@$00@std@@YAII@Z ENDP			; std::_Get_size_of_n<1>
_TEXT	ENDS
; Function compile flags: /Odtp /RTCsu /ZI
; File C:\Program Files\Microsoft Visual Studio\2022\Community\VC\Tools\MSVC\14.42.34433\include\xmemory
;	COMDAT ??$_Allocate_manually_vector_aligned@U_Default_allocate_traits@std@@@std@@YAPAXI@Z
_TEXT	SEGMENT
__Ptr$ = -32						; size = 4
__Ptr_container$ = -20					; size = 4
__Block_size$ = -8					; size = 4
__Bytes$ = 8						; size = 4
??$_Allocate_manually_vector_aligned@U_Default_allocate_traits@std@@@std@@YAPAXI@Z PROC ; std::_Allocate_manually_vector_aligned<std::_Default_allocate_traits>, COMDAT

; 151  : __declspec(allocator) void* _Allocate_manually_vector_aligned(const size_t _Bytes) {

  00000	55		 push	 ebp
  00001	8b ec		 mov	 ebp, esp
  00003	81 ec e4 00 00
	00		 sub	 esp, 228		; 000000e4H
  00009	53		 push	 ebx
  0000a	56		 push	 esi
  0000b	57		 push	 edi
  0000c	8d 7d dc	 lea	 edi, DWORD PTR [ebp-36]
  0000f	b9 09 00 00 00	 mov	 ecx, 9
  00014	b8 cc cc cc cc	 mov	 eax, -858993460		; ccccccccH
  00019	f3 ab		 rep stosd
  0001b	b9 00 00 00 00	 mov	 ecx, OFFSET __03BD3355_xmemory
  00020	e8 00 00 00 00	 call	 @__CheckForDebuggerJustMyCode@4
  00025	90		 npad	 1

; 152  :     // allocate _Bytes manually aligned to at least _Big_allocation_alignment
; 153  :     const size_t _Block_size = _Non_user_size + _Bytes;

  00026	8b 45 08	 mov	 eax, DWORD PTR __Bytes$[ebp]
  00029	83 c0 27	 add	 eax, 39			; 00000027H
  0002c	89 45 f8	 mov	 DWORD PTR __Block_size$[ebp], eax

; 154  :     if (_Block_size <= _Bytes) {

  0002f	8b 45 f8	 mov	 eax, DWORD PTR __Block_size$[ebp]
  00032	3b 45 08	 cmp	 eax, DWORD PTR __Bytes$[ebp]
  00035	77 06		 ja	 SHORT $LN8@Allocate_m

; 155  :         _Throw_bad_array_new_length(); // add overflow

  00037	e8 00 00 00 00	 call	 ?_Throw_bad_array_new_length@std@@YAXXZ ; std::_Throw_bad_array_new_length
  0003c	90		 npad	 1
$LN8@Allocate_m:

; 156  :     }
; 157  : 
; 158  :     const uintptr_t _Ptr_container = reinterpret_cast<uintptr_t>(_Traits::_Allocate(_Block_size));

  0003d	8b 45 f8	 mov	 eax, DWORD PTR __Block_size$[ebp]
  00040	50		 push	 eax
  00041	e8 00 00 00 00	 call	 ?_Allocate@_Default_allocate_traits@std@@SAPAXI@Z ; std::_Default_allocate_traits::_Allocate
  00046	83 c4 04	 add	 esp, 4
  00049	89 45 ec	 mov	 DWORD PTR __Ptr_container$[ebp], eax
$LN4@Allocate_m:

; 159  :     _STL_VERIFY(_Ptr_container != 0, "invalid argument"); // validate even in release since we're doing p[-1]

  0004c	83 7d ec 00	 cmp	 DWORD PTR __Ptr_container$[ebp], 0
  00050	74 02		 je	 SHORT $LN9@Allocate_m
  00052	eb 5d		 jmp	 SHORT $LN6@Allocate_m
$LN9@Allocate_m:
  00054	8b f4		 mov	 esi, esp
  00056	68 00 00 00 00	 push	 OFFSET ??_C@_0BB@FCMFBGOM@invalid?5argument@
  0005b	68 00 00 00 00	 push	 OFFSET ??_C@_02DKCKIIND@?$CFs@
  00060	6a 00		 push	 0
  00062	68 9f 00 00 00	 push	 159			; 0000009fH
  00067	68 00 00 00 00	 push	 OFFSET ??_C@_0GC@KIHIELAM@C?3?2Program?5Files?2Microsoft?5Visu@
  0006c	6a 02		 push	 2
  0006e	ff 15 00 00 00
	00		 call	 DWORD PTR __imp___CrtDbgReport
  00074	83 c4 18	 add	 esp, 24			; 00000018H
  00077	3b f4		 cmp	 esi, esp
  00079	e8 00 00 00 00	 call	 __RTC_CheckEsp
  0007e	83 f8 01	 cmp	 eax, 1
  00081	75 01		 jne	 SHORT $LN12@Allocate_m
  00083	cc		 int	 3
$LN12@Allocate_m:
  00084	8b f4		 mov	 esi, esp
  00086	6a 00		 push	 0
  00088	68 9f 00 00 00	 push	 159			; 0000009fH
  0008d	68 00 00 00 00	 push	 OFFSET ??_C@_1ME@NMPKGKJL@?$AAC?$AA?3?$AA?2?$AAP?$AAr?$AAo?$AAg?$AAr?$AAa?$AAm?$AA?5?$AAF?$AAi?$AAl?$AAe@
  00092	68 00 00 00 00	 push	 OFFSET ??_C@_11LOCGONAA@@
  00097	68 00 00 00 00	 push	 OFFSET ??_C@_1CG@JNLFBNGN@?$AA?$CC?$AAi?$AAn?$AAv?$AAa?$AAl?$AAi?$AAd?$AA?5?$AAa?$AAr?$AAg?$AAu?$AAm?$AAe@
  0009c	ff 15 00 00 00
	00		 call	 DWORD PTR __imp___invalid_parameter
  000a2	83 c4 14	 add	 esp, 20			; 00000014H
  000a5	3b f4		 cmp	 esi, esp
  000a7	e8 00 00 00 00	 call	 __RTC_CheckEsp
  000ac	90		 npad	 1
  000ad	33 c0		 xor	 eax, eax
  000af	75 a3		 jne	 SHORT $LN9@Allocate_m
$LN6@Allocate_m:
  000b1	33 c0		 xor	 eax, eax
  000b3	75 97		 jne	 SHORT $LN4@Allocate_m

; 160  :     void* const _Ptr = reinterpret_cast<void*>((_Ptr_container + _Non_user_size) & ~(_Big_allocation_alignment - 1));

  000b5	8b 45 ec	 mov	 eax, DWORD PTR __Ptr_container$[ebp]
  000b8	83 c0 27	 add	 eax, 39			; 00000027H
  000bb	83 e0 e0	 and	 eax, -32		; ffffffe0H
  000be	89 45 e0	 mov	 DWORD PTR __Ptr$[ebp], eax

; 161  :     static_cast<uintptr_t*>(_Ptr)[-1] = _Ptr_container;

  000c1	b8 04 00 00 00	 mov	 eax, 4
  000c6	6b c8 ff	 imul	 ecx, eax, -1
  000c9	8b 55 e0	 mov	 edx, DWORD PTR __Ptr$[ebp]
  000cc	8b 45 ec	 mov	 eax, DWORD PTR __Ptr_container$[ebp]
  000cf	89 04 0a	 mov	 DWORD PTR [edx+ecx], eax

; 162  : 
; 163  : #ifdef _DEBUG
; 164  :     static_cast<uintptr_t*>(_Ptr)[-2] = _Big_allocation_sentinel;

  000d2	b8 04 00 00 00	 mov	 eax, 4
  000d7	6b c8 fe	 imul	 ecx, eax, -2
  000da	8b 55 e0	 mov	 edx, DWORD PTR __Ptr$[ebp]
  000dd	c7 04 0a fa fa
	fa fa		 mov	 DWORD PTR [edx+ecx], -84215046 ; fafafafaH

; 165  : #endif // defined(_DEBUG)
; 166  :     return _Ptr;

  000e4	8b 45 e0	 mov	 eax, DWORD PTR __Ptr$[ebp]
$LN1@Allocate_m:

; 167  : }

  000e7	5f		 pop	 edi
  000e8	5e		 pop	 esi
  000e9	5b		 pop	 ebx
  000ea	81 c4 e4 00 00
	00		 add	 esp, 228		; 000000e4H
  000f0	3b ec		 cmp	 ebp, esp
  000f2	e8 00 00 00 00	 call	 __RTC_CheckEsp
  000f7	8b e5		 mov	 esp, ebp
  000f9	5d		 pop	 ebp
  000fa	c3		 ret	 0
??$_Allocate_manually_vector_aligned@U_Default_allocate_traits@std@@@std@@YAPAXI@Z ENDP ; std::_Allocate_manually_vector_aligned<std::_Default_allocate_traits>
_TEXT	ENDS
; Function compile flags: /Odtp /RTCsu /ZI
; File C:\Program Files\Microsoft Visual Studio\2022\Community\VC\Tools\MSVC\14.42.34433\include\xmemory
;	COMDAT ??$_Allocate_at_least_helper@V?$allocator@D@std@@@std@@YAPADAAV?$allocator@D@0@AAI@Z
_TEXT	SEGMENT
__Al$ = 8						; size = 4
__Count$ = 12						; size = 4
??$_Allocate_at_least_helper@V?$allocator@D@std@@@std@@YAPADAAV?$allocator@D@0@AAI@Z PROC ; std::_Allocate_at_least_helper<std::allocator<char> >, COMDAT

; 2173 :     _Alloc& _Al, _CRT_GUARDOVERFLOW typename allocator_traits<_Alloc>::size_type& _Count) {

  00000	55		 push	 ebp
  00001	8b ec		 mov	 ebp, esp
  00003	81 ec c0 00 00
	00		 sub	 esp, 192		; 000000c0H
  00009	53		 push	 ebx
  0000a	56		 push	 esi
  0000b	57		 push	 edi
  0000c	8b fd		 mov	 edi, ebp
  0000e	33 c9		 xor	 ecx, ecx
  00010	b8 cc cc cc cc	 mov	 eax, -858993460		; ccccccccH
  00015	f3 ab		 rep stosd
  00017	b9 00 00 00 00	 mov	 ecx, OFFSET __03BD3355_xmemory
  0001c	e8 00 00 00 00	 call	 @__CheckForDebuggerJustMyCode@4
  00021	90		 npad	 1

; 2174 : #if _HAS_CXX23
; 2175 :     if constexpr (_Should_allocate_at_least<_Alloc>) {
; 2176 :         auto [_Ptr, _Allocated] = _Al.allocate_at_least(_Count);
; 2177 :         _Count                  = _Allocated;
; 2178 :         return _Ptr;
; 2179 :     } else
; 2180 : #endif // _HAS_CXX23
; 2181 :     {
; 2182 :         return _Al.allocate(_Count);

  00022	8b 45 0c	 mov	 eax, DWORD PTR __Count$[ebp]
  00025	8b 08		 mov	 ecx, DWORD PTR [eax]
  00027	51		 push	 ecx
  00028	8b 4d 08	 mov	 ecx, DWORD PTR __Al$[ebp]
  0002b	e8 00 00 00 00	 call	 ?allocate@?$allocator@D@std@@QAEPADI@Z ; std::allocator<char>::allocate

; 2183 :     }
; 2184 : }

  00030	5f		 pop	 edi
  00031	5e		 pop	 esi
  00032	5b		 pop	 ebx
  00033	81 c4 c0 00 00
	00		 add	 esp, 192		; 000000c0H
  00039	3b ec		 cmp	 ebp, esp
  0003b	e8 00 00 00 00	 call	 __RTC_CheckEsp
  00040	8b e5		 mov	 esp, ebp
  00042	5d		 pop	 ebp
  00043	c3		 ret	 0
??$_Allocate_at_least_helper@V?$allocator@D@std@@@std@@YAPADAAV?$allocator@D@0@AAI@Z ENDP ; std::_Allocate_at_least_helper<std::allocator<char> >
_TEXT	ENDS
; Function compile flags: /Odtp /RTCsu /ZI
; File C:\Program Files\Microsoft Visual Studio\2022\Community\VC\Tools\MSVC\14.42.34433\include\xmemory
;	COMDAT ?deallocate@?$_Default_allocator_traits@V?$allocator@U_Container_proxy@std@@@std@@@std@@SAXAAV?$allocator@U_Container_proxy@std@@@2@QAU_Container_proxy@2@I@Z
_TEXT	SEGMENT
__Al$ = 8						; size = 4
__Ptr$ = 12						; size = 4
__Count$ = 16						; size = 4
?deallocate@?$_Default_allocator_traits@V?$allocator@U_Container_proxy@std@@@std@@@std@@SAXAAV?$allocator@U_Container_proxy@std@@@2@QAU_Container_proxy@2@I@Z PROC ; std::_Default_allocator_traits<std::allocator<std::_Container_proxy> >::deallocate, COMDAT

; 682  :     static _CONSTEXPR20 void deallocate(_Alloc& _Al, const pointer _Ptr, const size_type _Count) {

  00000	55		 push	 ebp
  00001	8b ec		 mov	 ebp, esp
  00003	81 ec c0 00 00
	00		 sub	 esp, 192		; 000000c0H
  00009	53		 push	 ebx
  0000a	56		 push	 esi
  0000b	57		 push	 edi
  0000c	8b fd		 mov	 edi, ebp
  0000e	33 c9		 xor	 ecx, ecx
  00010	b8 cc cc cc cc	 mov	 eax, -858993460		; ccccccccH
  00015	f3 ab		 rep stosd
  00017	b9 00 00 00 00	 mov	 ecx, OFFSET __03BD3355_xmemory
  0001c	e8 00 00 00 00	 call	 @__CheckForDebuggerJustMyCode@4
  00021	90		 npad	 1

; 683  :         // no overflow check on the following multiply; we assume _Allocate did that check
; 684  : #if _HAS_CXX20 // TRANSITION, GH-1532
; 685  :         if (_STD is_constant_evaluated()) {
; 686  :             _Al.deallocate(_Ptr, _Count);
; 687  :         } else
; 688  : #endif // _HAS_CXX20
; 689  :         {
; 690  :             (void) _Al;
; 691  :             _STD _Deallocate<_New_alignof<value_type>>(_Ptr, sizeof(value_type) * _Count);

  00022	8b 45 10	 mov	 eax, DWORD PTR __Count$[ebp]
  00025	c1 e0 03	 shl	 eax, 3
  00028	50		 push	 eax
  00029	8b 4d 0c	 mov	 ecx, DWORD PTR __Ptr$[ebp]
  0002c	51		 push	 ecx
  0002d	e8 00 00 00 00	 call	 ??$_Deallocate@$07@std@@YAXPAXI@Z ; std::_Deallocate<8>
  00032	83 c4 08	 add	 esp, 8

; 692  :         }
; 693  :     }

  00035	5f		 pop	 edi
  00036	5e		 pop	 esi
  00037	5b		 pop	 ebx
  00038	81 c4 c0 00 00
	00		 add	 esp, 192		; 000000c0H
  0003e	3b ec		 cmp	 ebp, esp
  00040	e8 00 00 00 00	 call	 __RTC_CheckEsp
  00045	8b e5		 mov	 esp, ebp
  00047	5d		 pop	 ebp
  00048	c3		 ret	 0
?deallocate@?$_Default_allocator_traits@V?$allocator@U_Container_proxy@std@@@std@@@std@@SAXAAV?$allocator@U_Container_proxy@std@@@2@QAU_Container_proxy@2@I@Z ENDP ; std::_Default_allocator_traits<std::allocator<std::_Container_proxy> >::deallocate
_TEXT	ENDS
; Function compile flags: /Odtp /RTCsu /ZI
; File C:\Program Files\Microsoft Visual Studio\2022\Community\VC\Tools\MSVC\14.42.34433\include\type_traits
;	COMDAT ??$addressof@U_Container_proxy@std@@@std@@YAPAU_Container_proxy@0@AAU10@@Z
_TEXT	SEGMENT
__Val$ = 8						; size = 4
??$addressof@U_Container_proxy@std@@@std@@YAPAU_Container_proxy@0@AAU10@@Z PROC ; std::addressof<std::_Container_proxy>, COMDAT

; 1549 : _NODISCARD constexpr _Ty* addressof(_Ty& _Val) noexcept {

  00000	55		 push	 ebp
  00001	8b ec		 mov	 ebp, esp
  00003	81 ec c0 00 00
	00		 sub	 esp, 192		; 000000c0H
  00009	53		 push	 ebx
  0000a	56		 push	 esi
  0000b	57		 push	 edi
  0000c	8b fd		 mov	 edi, ebp
  0000e	33 c9		 xor	 ecx, ecx
  00010	b8 cc cc cc cc	 mov	 eax, -858993460		; ccccccccH
  00015	f3 ab		 rep stosd
  00017	b9 00 00 00 00	 mov	 ecx, OFFSET __4C58012B_type_traits
  0001c	e8 00 00 00 00	 call	 @__CheckForDebuggerJustMyCode@4
  00021	90		 npad	 1

; 1550 :     return __builtin_addressof(_Val);

  00022	8b 45 08	 mov	 eax, DWORD PTR __Val$[ebp]

; 1551 : }

  00025	5f		 pop	 edi
  00026	5e		 pop	 esi
  00027	5b		 pop	 ebx
  00028	81 c4 c0 00 00
	00		 add	 esp, 192		; 000000c0H
  0002e	3b ec		 cmp	 ebp, esp
  00030	e8 00 00 00 00	 call	 __RTC_CheckEsp
  00035	8b e5		 mov	 esp, ebp
  00037	5d		 pop	 ebp
  00038	c3		 ret	 0
??$addressof@U_Container_proxy@std@@@std@@YAPAU_Container_proxy@0@AAU10@@Z ENDP ; std::addressof<std::_Container_proxy>
_TEXT	ENDS
; Function compile flags: /Odtp /RTCsu /ZI
; File C:\Program Files\Microsoft Visual Studio\2022\Community\VC\Tools\MSVC\14.42.34433\include\utility
;	COMDAT ??$_Max_limit@H@std@@YAHXZ
_TEXT	SEGMENT
__Unsigned_max$1 = -8					; size = 4
??$_Max_limit@H@std@@YAHXZ PROC				; std::_Max_limit<int>, COMDAT

; 854  : _NODISCARD constexpr _Ty _Max_limit() noexcept { // same as (numeric_limits<_Ty>::max)(), less throughput cost

  00000	55		 push	 ebp
  00001	8b ec		 mov	 ebp, esp
  00003	81 ec cc 00 00
	00		 sub	 esp, 204		; 000000ccH
  00009	53		 push	 ebx
  0000a	56		 push	 esi
  0000b	57		 push	 edi
  0000c	8d 7d f4	 lea	 edi, DWORD PTR [ebp-12]
  0000f	b9 03 00 00 00	 mov	 ecx, 3
  00014	b8 cc cc cc cc	 mov	 eax, -858993460		; ccccccccH
  00019	f3 ab		 rep stosd
  0001b	b9 00 00 00 00	 mov	 ecx, OFFSET __69285096_utility
  00020	e8 00 00 00 00	 call	 @__CheckForDebuggerJustMyCode@4
  00025	90		 npad	 1

; 855  :     _STL_INTERNAL_STATIC_ASSERT(is_integral_v<_Ty>); // doesn't attempt to handle all types
; 856  :     if constexpr (is_signed_v<_Ty>) {
; 857  :         constexpr auto _Unsigned_max = static_cast<make_unsigned_t<_Ty>>(-1);

  00026	c7 45 f8 ff ff
	ff ff		 mov	 DWORD PTR __Unsigned_max$1[ebp], -1

; 858  :         return static_cast<_Ty>(_Unsigned_max >> 1);

  0002d	b8 ff ff ff 7f	 mov	 eax, 2147483647		; 7fffffffH

; 859  :     } else {
; 860  :         return static_cast<_Ty>(-1);
; 861  :     }
; 862  : }

  00032	5f		 pop	 edi
  00033	5e		 pop	 esi
  00034	5b		 pop	 ebx
  00035	81 c4 cc 00 00
	00		 add	 esp, 204		; 000000ccH
  0003b	3b ec		 cmp	 ebp, esp
  0003d	e8 00 00 00 00	 call	 __RTC_CheckEsp
  00042	8b e5		 mov	 esp, ebp
  00044	5d		 pop	 ebp
  00045	c3		 ret	 0
??$_Max_limit@H@std@@YAHXZ ENDP				; std::_Max_limit<int>
_TEXT	ENDS
; Function compile flags: /Odtp /RTCsu /ZI
; File C:\Program Files\Microsoft Visual Studio\2022\Community\VC\Tools\MSVC\14.42.34433\include\xmemory
;	COMDAT ??$_Allocate@$07U_Default_allocate_traits@std@@@std@@YAPAXI@Z
_TEXT	SEGMENT
__Bytes$ = 8						; size = 4
??$_Allocate@$07U_Default_allocate_traits@std@@@std@@YAPAXI@Z PROC ; std::_Allocate<8,std::_Default_allocate_traits>, COMDAT

; 194  : __declspec(allocator) _CONSTEXPR20 void* _Allocate(const size_t _Bytes) {

  00000	55		 push	 ebp
  00001	8b ec		 mov	 ebp, esp
  00003	81 ec c0 00 00
	00		 sub	 esp, 192		; 000000c0H
  00009	53		 push	 ebx
  0000a	56		 push	 esi
  0000b	57		 push	 edi
  0000c	8b fd		 mov	 edi, ebp
  0000e	33 c9		 xor	 ecx, ecx
  00010	b8 cc cc cc cc	 mov	 eax, -858993460		; ccccccccH
  00015	f3 ab		 rep stosd
  00017	b9 00 00 00 00	 mov	 ecx, OFFSET __03BD3355_xmemory
  0001c	e8 00 00 00 00	 call	 @__CheckForDebuggerJustMyCode@4
  00021	90		 npad	 1

; 195  :     // allocate _Bytes
; 196  :     if (_Bytes == 0) {

  00022	83 7d 08 00	 cmp	 DWORD PTR __Bytes$[ebp], 0
  00026	75 04		 jne	 SHORT $LN2@Allocate

; 197  :         return nullptr;

  00028	33 c0		 xor	 eax, eax
  0002a	eb 23		 jmp	 SHORT $LN1@Allocate
$LN2@Allocate:

; 198  :     }
; 199  : 
; 200  : #if _HAS_CXX20 // TRANSITION, GH-1532
; 201  :     if (_STD is_constant_evaluated()) {
; 202  :         return _Traits::_Allocate(_Bytes);
; 203  :     }
; 204  : #endif // _HAS_CXX20
; 205  : 
; 206  : #ifdef __cpp_aligned_new
; 207  :     if constexpr (_Align > __STDCPP_DEFAULT_NEW_ALIGNMENT__) {
; 208  :         size_t _Passed_align = _Align;
; 209  : #if defined(_M_IX86) || defined(_M_X64)
; 210  :         if (_Bytes >= _Big_allocation_threshold) {
; 211  :             // boost the alignment of big allocations to help autovectorization
; 212  :             _Passed_align = (_STD max)(_Align, _Big_allocation_alignment);
; 213  :         }
; 214  : #endif // defined(_M_IX86) || defined(_M_X64)
; 215  :         return _Traits::_Allocate_aligned(_Bytes, _Passed_align);
; 216  :     } else
; 217  : #endif // defined(__cpp_aligned_new)
; 218  :     {
; 219  : #if defined(_M_IX86) || defined(_M_X64)
; 220  :         if (_Bytes >= _Big_allocation_threshold) {

  0002c	81 7d 08 00 10
	00 00		 cmp	 DWORD PTR __Bytes$[ebp], 4096 ; 00001000H
  00033	72 0e		 jb	 SHORT $LN3@Allocate

; 221  :             // boost the alignment of big allocations to help autovectorization
; 222  :             return _Allocate_manually_vector_aligned<_Traits>(_Bytes);

  00035	8b 45 08	 mov	 eax, DWORD PTR __Bytes$[ebp]
  00038	50		 push	 eax
  00039	e8 00 00 00 00	 call	 ??$_Allocate_manually_vector_aligned@U_Default_allocate_traits@std@@@std@@YAPAXI@Z ; std::_Allocate_manually_vector_aligned<std::_Default_allocate_traits>
  0003e	83 c4 04	 add	 esp, 4
  00041	eb 0c		 jmp	 SHORT $LN1@Allocate
$LN3@Allocate:

; 223  :         }
; 224  : #endif // defined(_M_IX86) || defined(_M_X64)
; 225  :         return _Traits::_Allocate(_Bytes);

  00043	8b 45 08	 mov	 eax, DWORD PTR __Bytes$[ebp]
  00046	50		 push	 eax
  00047	e8 00 00 00 00	 call	 ?_Allocate@_Default_allocate_traits@std@@SAPAXI@Z ; std::_Default_allocate_traits::_Allocate
  0004c	83 c4 04	 add	 esp, 4
$LN1@Allocate:

; 226  :     }
; 227  : }

  0004f	5f		 pop	 edi
  00050	5e		 pop	 esi
  00051	5b		 pop	 ebx
  00052	81 c4 c0 00 00
	00		 add	 esp, 192		; 000000c0H
  00058	3b ec		 cmp	 ebp, esp
  0005a	e8 00 00 00 00	 call	 __RTC_CheckEsp
  0005f	8b e5		 mov	 esp, ebp
  00061	5d		 pop	 ebp
  00062	c3		 ret	 0
??$_Allocate@$07U_Default_allocate_traits@std@@@std@@YAPAXI@Z ENDP ; std::_Allocate<8,std::_Default_allocate_traits>
_TEXT	ENDS
; Function compile flags: /Odtp /RTCsu /ZI
; File C:\Program Files\Microsoft Visual Studio\2022\Community\VC\Tools\MSVC\14.42.34433\include\xmemory
;	COMDAT ??$_Get_size_of_n@$07@std@@YAII@Z
_TEXT	SEGMENT
__Max_possible$1 = -20					; size = 4
__Overflow_is_possible$ = -5				; size = 1
__Count$ = 8						; size = 4
??$_Get_size_of_n@$07@std@@YAII@Z PROC			; std::_Get_size_of_n<8>, COMDAT

; 79   : _NODISCARD constexpr size_t _Get_size_of_n(const size_t _Count) {

  00000	55		 push	 ebp
  00001	8b ec		 mov	 ebp, esp
  00003	81 ec d8 00 00
	00		 sub	 esp, 216		; 000000d8H
  00009	53		 push	 ebx
  0000a	56		 push	 esi
  0000b	57		 push	 edi
  0000c	8d 7d e8	 lea	 edi, DWORD PTR [ebp-24]
  0000f	b9 06 00 00 00	 mov	 ecx, 6
  00014	b8 cc cc cc cc	 mov	 eax, -858993460		; ccccccccH
  00019	f3 ab		 rep stosd
  0001b	b9 00 00 00 00	 mov	 ecx, OFFSET __03BD3355_xmemory
  00020	e8 00 00 00 00	 call	 @__CheckForDebuggerJustMyCode@4
  00025	90		 npad	 1

; 80   :     constexpr bool _Overflow_is_possible = _Ty_size > 1;

  00026	c6 45 fb 01	 mov	 BYTE PTR __Overflow_is_possible$[ebp], 1

; 81   : 
; 82   :     if constexpr (_Overflow_is_possible) {
; 83   :         constexpr size_t _Max_possible = static_cast<size_t>(-1) / _Ty_size;

  0002a	c7 45 ec ff ff
	ff 1f		 mov	 DWORD PTR __Max_possible$1[ebp], 536870911 ; 1fffffffH

; 84   :         if (_Count > _Max_possible) {

  00031	81 7d 08 ff ff
	ff 1f		 cmp	 DWORD PTR __Count$[ebp], 536870911 ; 1fffffffH
  00038	76 06		 jbe	 SHORT $LN2@Get_size_o

; 85   :             _Throw_bad_array_new_length(); // multiply overflow

  0003a	e8 00 00 00 00	 call	 ?_Throw_bad_array_new_length@std@@YAXXZ ; std::_Throw_bad_array_new_length
  0003f	90		 npad	 1
$LN2@Get_size_o:

; 86   :         }
; 87   :     }
; 88   : 
; 89   :     return _Count * _Ty_size;

  00040	8b 45 08	 mov	 eax, DWORD PTR __Count$[ebp]
  00043	c1 e0 03	 shl	 eax, 3
$LN1@Get_size_o:

; 90   : }

  00046	5f		 pop	 edi
  00047	5e		 pop	 esi
  00048	5b		 pop	 ebx
  00049	81 c4 d8 00 00
	00		 add	 esp, 216		; 000000d8H
  0004f	3b ec		 cmp	 ebp, esp
  00051	e8 00 00 00 00	 call	 __RTC_CheckEsp
  00056	8b e5		 mov	 esp, ebp
  00058	5d		 pop	 ebp
  00059	c3		 ret	 0
??$_Get_size_of_n@$07@std@@YAII@Z ENDP			; std::_Get_size_of_n<8>
_TEXT	ENDS
; Function compile flags: /Odtp /RTCsu /ZI
; File C:\Program Files\Microsoft Visual Studio\2022\Community\VC\Tools\MSVC\14.42.34433\include\type_traits
;	COMDAT ??$addressof@V?$basic_ostream@DU?$char_traits@D@std@@@std@@@std@@YAPAV?$basic_ostream@DU?$char_traits@D@std@@@0@AAV10@@Z
_TEXT	SEGMENT
__Val$ = 8						; size = 4
??$addressof@V?$basic_ostream@DU?$char_traits@D@std@@@std@@@std@@YAPAV?$basic_ostream@DU?$char_traits@D@std@@@0@AAV10@@Z PROC ; std::addressof<std::basic_ostream<char,std::char_traits<char> > >, COMDAT

; 1549 : _NODISCARD constexpr _Ty* addressof(_Ty& _Val) noexcept {

  00000	55		 push	 ebp
  00001	8b ec		 mov	 ebp, esp
  00003	81 ec c0 00 00
	00		 sub	 esp, 192		; 000000c0H
  00009	53		 push	 ebx
  0000a	56		 push	 esi
  0000b	57		 push	 edi
  0000c	8b fd		 mov	 edi, ebp
  0000e	33 c9		 xor	 ecx, ecx
  00010	b8 cc cc cc cc	 mov	 eax, -858993460		; ccccccccH
  00015	f3 ab		 rep stosd
  00017	b9 00 00 00 00	 mov	 ecx, OFFSET __4C58012B_type_traits
  0001c	e8 00 00 00 00	 call	 @__CheckForDebuggerJustMyCode@4
  00021	90		 npad	 1

; 1550 :     return __builtin_addressof(_Val);

  00022	8b 45 08	 mov	 eax, DWORD PTR __Val$[ebp]

; 1551 : }

  00025	5f		 pop	 edi
  00026	5e		 pop	 esi
  00027	5b		 pop	 ebx
  00028	81 c4 c0 00 00
	00		 add	 esp, 192		; 000000c0H
  0002e	3b ec		 cmp	 ebp, esp
  00030	e8 00 00 00 00	 call	 __RTC_CheckEsp
  00035	8b e5		 mov	 esp, ebp
  00037	5d		 pop	 ebp
  00038	c3		 ret	 0
??$addressof@V?$basic_ostream@DU?$char_traits@D@std@@@std@@@std@@YAPAV?$basic_ostream@DU?$char_traits@D@std@@@0@AAV10@@Z ENDP ; std::addressof<std::basic_ostream<char,std::char_traits<char> > >
_TEXT	ENDS
; Function compile flags: /Odtp /RTCsu /ZI
; File C:\Program Files\Microsoft Visual Studio\2022\Community\VC\Tools\MSVC\14.42.34433\include\type_traits
;	COMDAT ??$addressof@PAD@std@@YAPAPADAAPAD@Z
_TEXT	SEGMENT
__Val$ = 8						; size = 4
??$addressof@PAD@std@@YAPAPADAAPAD@Z PROC		; std::addressof<char *>, COMDAT

; 1549 : _NODISCARD constexpr _Ty* addressof(_Ty& _Val) noexcept {

  00000	55		 push	 ebp
  00001	8b ec		 mov	 ebp, esp
  00003	81 ec c0 00 00
	00		 sub	 esp, 192		; 000000c0H
  00009	53		 push	 ebx
  0000a	56		 push	 esi
  0000b	57		 push	 edi
  0000c	8b fd		 mov	 edi, ebp
  0000e	33 c9		 xor	 ecx, ecx
  00010	b8 cc cc cc cc	 mov	 eax, -858993460		; ccccccccH
  00015	f3 ab		 rep stosd
  00017	b9 00 00 00 00	 mov	 ecx, OFFSET __4C58012B_type_traits
  0001c	e8 00 00 00 00	 call	 @__CheckForDebuggerJustMyCode@4
  00021	90		 npad	 1

; 1550 :     return __builtin_addressof(_Val);

  00022	8b 45 08	 mov	 eax, DWORD PTR __Val$[ebp]

; 1551 : }

  00025	5f		 pop	 edi
  00026	5e		 pop	 esi
  00027	5b		 pop	 ebx
  00028	81 c4 c0 00 00
	00		 add	 esp, 192		; 000000c0H
  0002e	3b ec		 cmp	 ebp, esp
  00030	e8 00 00 00 00	 call	 __RTC_CheckEsp
  00035	8b e5		 mov	 esp, ebp
  00037	5d		 pop	 ebp
  00038	c3		 ret	 0
??$addressof@PAD@std@@YAPAPADAAPAD@Z ENDP		; std::addressof<char *>
_TEXT	ENDS
; Function compile flags: /Odtp /RTCsu /ZI
; File C:\Program Files\Microsoft Visual Studio\2022\Community\VC\Tools\MSVC\14.42.34433\include\xutility
;	COMDAT ??$_Construct_in_place@PADABQAD@std@@YAXAAPADABQAD@Z
_TEXT	SEGMENT
$T1 = -200						; size = 4
__Obj$ = 8						; size = 4
_<_Args_0>$ = 12					; size = 4
??$_Construct_in_place@PADABQAD@std@@YAXAAPADABQAD@Z PROC ; std::_Construct_in_place<char *,char * const &>, COMDAT

; 399  :     is_nothrow_constructible_v<_Ty, _Types...>) {

  00000	55		 push	 ebp
  00001	8b ec		 mov	 ebp, esp
  00003	81 ec cc 00 00
	00		 sub	 esp, 204		; 000000ccH
  00009	53		 push	 ebx
  0000a	56		 push	 esi
  0000b	57		 push	 edi
  0000c	8d 7d f4	 lea	 edi, DWORD PTR [ebp-12]
  0000f	b9 03 00 00 00	 mov	 ecx, 3
  00014	b8 cc cc cc cc	 mov	 eax, -858993460		; ccccccccH
  00019	f3 ab		 rep stosd
  0001b	b9 00 00 00 00	 mov	 ecx, OFFSET __EC88E9B5_xutility
  00020	e8 00 00 00 00	 call	 @__CheckForDebuggerJustMyCode@4
  00025	90		 npad	 1

; 400  : #if _HAS_CXX20
; 401  :     if (_STD is_constant_evaluated()) {
; 402  :         _STD construct_at(_STD addressof(_Obj), _STD forward<_Types>(_Args)...);
; 403  :     } else
; 404  : #endif // _HAS_CXX20
; 405  :     {
; 406  :         ::new (static_cast<void*>(_STD addressof(_Obj))) _Ty(_STD forward<_Types>(_Args)...);

  00026	8b 45 08	 mov	 eax, DWORD PTR __Obj$[ebp]
  00029	50		 push	 eax
  0002a	e8 00 00 00 00	 call	 ??$addressof@PAD@std@@YAPAPADAAPAD@Z ; std::addressof<char *>
  0002f	83 c4 04	 add	 esp, 4
  00032	50		 push	 eax
  00033	6a 04		 push	 4
  00035	e8 00 00 00 00	 call	 ??2@YAPAXIPAX@Z		; operator new
  0003a	83 c4 08	 add	 esp, 8
  0003d	89 85 38 ff ff
	ff		 mov	 DWORD PTR $T1[ebp], eax
  00043	8b 8d 38 ff ff
	ff		 mov	 ecx, DWORD PTR $T1[ebp]
  00049	8b 55 0c	 mov	 edx, DWORD PTR _<_Args_0>$[ebp]
  0004c	8b 02		 mov	 eax, DWORD PTR [edx]
  0004e	89 01		 mov	 DWORD PTR [ecx], eax

; 407  :     }
; 408  : }

  00050	5f		 pop	 edi
  00051	5e		 pop	 esi
  00052	5b		 pop	 ebx
  00053	81 c4 cc 00 00
	00		 add	 esp, 204		; 000000ccH
  00059	3b ec		 cmp	 ebp, esp
  0005b	e8 00 00 00 00	 call	 __RTC_CheckEsp
  00060	8b e5		 mov	 esp, ebp
  00062	5d		 pop	 ebp
  00063	c3		 ret	 0
??$_Construct_in_place@PADABQAD@std@@YAXAAPADABQAD@Z ENDP ; std::_Construct_in_place<char *,char * const &>
_TEXT	ENDS
; Function compile flags: /Odtp /RTCsu /ZI
; File C:\Program Files\Microsoft Visual Studio\2022\Community\VC\Tools\MSVC\14.42.34433\include\xstring
;	COMDAT ??$_Allocate_for_capacity@$0A@@?$basic_string@DU?$char_traits@D@std@@V?$allocator@D@2@@std@@CAPADAAV?$allocator@D@1@AAI@Z
_TEXT	SEGMENT
__Fancy_ptr$ = -8					; size = 4
__Al$ = 8						; size = 4
__Capacity$ = 12					; size = 4
??$_Allocate_for_capacity@$0A@@?$basic_string@DU?$char_traits@D@std@@V?$allocator@D@2@@std@@CAPADAAV?$allocator@D@1@AAI@Z PROC ; std::basic_string<char,std::char_traits<char>,std::allocator<char> >::_Allocate_for_capacity<0>, COMDAT

; 804  :     _NODISCARD static _CONSTEXPR20 pointer _Allocate_for_capacity(_Alty& _Al, size_type& _Capacity) {

  00000	55		 push	 ebp
  00001	8b ec		 mov	 ebp, esp
  00003	81 ec cc 00 00
	00		 sub	 esp, 204		; 000000ccH
  00009	53		 push	 ebx
  0000a	56		 push	 esi
  0000b	57		 push	 edi
  0000c	8d 7d f4	 lea	 edi, DWORD PTR [ebp-12]
  0000f	b9 03 00 00 00	 mov	 ecx, 3
  00014	b8 cc cc cc cc	 mov	 eax, -858993460		; ccccccccH
  00019	f3 ab		 rep stosd
  0001b	b9 00 00 00 00	 mov	 ecx, OFFSET __776EB5C9_xstring
  00020	e8 00 00 00 00	 call	 @__CheckForDebuggerJustMyCode@4
  00025	90		 npad	 1

; 805  :         _STL_INTERNAL_CHECK(_Capacity > _Small_string_capacity);
; 806  :         ++_Capacity; // Take null terminator into consideration

  00026	8b 45 0c	 mov	 eax, DWORD PTR __Capacity$[ebp]
  00029	8b 08		 mov	 ecx, DWORD PTR [eax]
  0002b	83 c1 01	 add	 ecx, 1
  0002e	8b 55 0c	 mov	 edx, DWORD PTR __Capacity$[ebp]
  00031	89 0a		 mov	 DWORD PTR [edx], ecx

; 807  : 
; 808  :         pointer _Fancy_ptr = nullptr;

  00033	c7 45 f8 00 00
	00 00		 mov	 DWORD PTR __Fancy_ptr$[ebp], 0

; 809  :         if constexpr (_Policy == _Allocation_policy::_At_least) {
; 810  :             _Fancy_ptr = _Allocate_at_least_helper(_Al, _Capacity);

  0003a	8b 45 0c	 mov	 eax, DWORD PTR __Capacity$[ebp]
  0003d	50		 push	 eax
  0003e	8b 4d 08	 mov	 ecx, DWORD PTR __Al$[ebp]
  00041	51		 push	 ecx
  00042	e8 00 00 00 00	 call	 ??$_Allocate_at_least_helper@V?$allocator@D@std@@@std@@YAPADAAV?$allocator@D@0@AAI@Z ; std::_Allocate_at_least_helper<std::allocator<char> >
  00047	83 c4 08	 add	 esp, 8
  0004a	89 45 f8	 mov	 DWORD PTR __Fancy_ptr$[ebp], eax

; 811  :         } else {
; 812  :             _STL_INTERNAL_STATIC_ASSERT(_Policy == _Allocation_policy::_Exactly);
; 813  :             _Fancy_ptr = _Al.allocate(_Capacity);
; 814  :         }
; 815  : 
; 816  : #if _HAS_CXX20
; 817  :         // Start element lifetimes to avoid UB. This is a more general mechanism than _String_val::_Activate_SSO_buffer,
; 818  :         // but likely more impactful to throughput.
; 819  :         if (_STD is_constant_evaluated()) {
; 820  :             _Elem* const _Ptr = _Unfancy(_Fancy_ptr);
; 821  :             for (size_type _Idx = 0; _Idx < _Capacity; ++_Idx) {
; 822  :                 _STD construct_at(_Ptr + _Idx);
; 823  :             }
; 824  :         }
; 825  : #endif // _HAS_CXX20
; 826  :         --_Capacity;

  0004d	8b 45 0c	 mov	 eax, DWORD PTR __Capacity$[ebp]
  00050	8b 08		 mov	 ecx, DWORD PTR [eax]
  00052	83 e9 01	 sub	 ecx, 1
  00055	8b 55 0c	 mov	 edx, DWORD PTR __Capacity$[ebp]
  00058	89 0a		 mov	 DWORD PTR [edx], ecx

; 827  :         return _Fancy_ptr;

  0005a	8b 45 f8	 mov	 eax, DWORD PTR __Fancy_ptr$[ebp]

; 828  :     }

  0005d	5f		 pop	 edi
  0005e	5e		 pop	 esi
  0005f	5b		 pop	 ebx
  00060	81 c4 cc 00 00
	00		 add	 esp, 204		; 000000ccH
  00066	3b ec		 cmp	 ebp, esp
  00068	e8 00 00 00 00	 call	 __RTC_CheckEsp
  0006d	8b e5		 mov	 esp, ebp
  0006f	5d		 pop	 ebp
  00070	c3		 ret	 0
??$_Allocate_for_capacity@$0A@@?$basic_string@DU?$char_traits@D@std@@V?$allocator@D@2@@std@@CAPADAAV?$allocator@D@1@AAI@Z ENDP ; std::basic_string<char,std::char_traits<char>,std::allocator<char> >::_Allocate_for_capacity<0>
_TEXT	ENDS
; Function compile flags: /Odtp /RTCsu /ZI
; File C:\Program Files\Microsoft Visual Studio\2022\Community\VC\Tools\MSVC\14.42.34433\include\xmemory
;	COMDAT ??$_Unfancy@U_Container_proxy@std@@@std@@YAPAU_Container_proxy@0@PAU10@@Z
_TEXT	SEGMENT
__Ptr$ = 8						; size = 4
??$_Unfancy@U_Container_proxy@std@@@std@@YAPAU_Container_proxy@0@PAU10@@Z PROC ; std::_Unfancy<std::_Container_proxy>, COMDAT

; 35   : _NODISCARD constexpr _Ty* _Unfancy(_Ty* _Ptr) noexcept { // do nothing for plain pointers

  00000	55		 push	 ebp
  00001	8b ec		 mov	 ebp, esp
  00003	81 ec c0 00 00
	00		 sub	 esp, 192		; 000000c0H
  00009	53		 push	 ebx
  0000a	56		 push	 esi
  0000b	57		 push	 edi
  0000c	8b fd		 mov	 edi, ebp
  0000e	33 c9		 xor	 ecx, ecx
  00010	b8 cc cc cc cc	 mov	 eax, -858993460		; ccccccccH
  00015	f3 ab		 rep stosd
  00017	b9 00 00 00 00	 mov	 ecx, OFFSET __03BD3355_xmemory
  0001c	e8 00 00 00 00	 call	 @__CheckForDebuggerJustMyCode@4
  00021	90		 npad	 1

; 36   :     return _Ptr;

  00022	8b 45 08	 mov	 eax, DWORD PTR __Ptr$[ebp]

; 37   : }

  00025	5f		 pop	 edi
  00026	5e		 pop	 esi
  00027	5b		 pop	 ebx
  00028	81 c4 c0 00 00
	00		 add	 esp, 192		; 000000c0H
  0002e	3b ec		 cmp	 ebp, esp
  00030	e8 00 00 00 00	 call	 __RTC_CheckEsp
  00035	8b e5		 mov	 esp, ebp
  00037	5d		 pop	 ebp
  00038	c3		 ret	 0
??$_Unfancy@U_Container_proxy@std@@@std@@YAPAU_Container_proxy@0@PAU10@@Z ENDP ; std::_Unfancy<std::_Container_proxy>
_TEXT	ENDS
; Function compile flags: /Odtp /RTCsu /ZI
; File C:\Program Files\Microsoft Visual Studio\2022\Community\VC\Tools\MSVC\14.42.34433\include\xmemory
;	COMDAT ??1?$_Container_proxy_ptr12@V?$allocator@U_Container_proxy@std@@@std@@@std@@QAE@XZ
_TEXT	SEGMENT
_this$ = -8						; size = 4
??1?$_Container_proxy_ptr12@V?$allocator@U_Container_proxy@std@@@std@@@std@@QAE@XZ PROC ; std::_Container_proxy_ptr12<std::allocator<std::_Container_proxy> >::~_Container_proxy_ptr12<std::allocator<std::_Container_proxy> >, COMDAT
; _this$ = ecx

; 1459 :     _CONSTEXPR20 ~_Container_proxy_ptr12() {

  00000	55		 push	 ebp
  00001	8b ec		 mov	 ebp, esp
  00003	81 ec cc 00 00
	00		 sub	 esp, 204		; 000000ccH
  00009	53		 push	 ebx
  0000a	56		 push	 esi
  0000b	57		 push	 edi
  0000c	51		 push	 ecx
  0000d	8d 7d f4	 lea	 edi, DWORD PTR [ebp-12]
  00010	b9 03 00 00 00	 mov	 ecx, 3
  00015	b8 cc cc cc cc	 mov	 eax, -858993460		; ccccccccH
  0001a	f3 ab		 rep stosd
  0001c	59		 pop	 ecx
  0001d	89 4d f8	 mov	 DWORD PTR _this$[ebp], ecx
  00020	b9 00 00 00 00	 mov	 ecx, OFFSET __03BD3355_xmemory
  00025	e8 00 00 00 00	 call	 @__CheckForDebuggerJustMyCode@4
  0002a	90		 npad	 1

; 1460 :         if (_Ptr) {

  0002b	8b 45 f8	 mov	 eax, DWORD PTR _this$[ebp]
  0002e	83 38 00	 cmp	 DWORD PTR [eax], 0
  00031	74 15		 je	 SHORT $LN2@Container_

; 1461 :             _Delete_plain_internal(_Al, _Ptr);

  00033	8b 45 f8	 mov	 eax, DWORD PTR _this$[ebp]
  00036	8b 08		 mov	 ecx, DWORD PTR [eax]
  00038	51		 push	 ecx
  00039	8b 55 f8	 mov	 edx, DWORD PTR _this$[ebp]
  0003c	8b 42 04	 mov	 eax, DWORD PTR [edx+4]
  0003f	50		 push	 eax
  00040	e8 00 00 00 00	 call	 ??$_Delete_plain_internal@V?$allocator@U_Container_proxy@std@@@std@@@std@@YAXAAV?$allocator@U_Container_proxy@std@@@0@QAU_Container_proxy@0@@Z ; std::_Delete_plain_internal<std::allocator<std::_Container_proxy> >
  00045	83 c4 08	 add	 esp, 8
$LN2@Container_:

; 1462 :         }
; 1463 :     }

  00048	5f		 pop	 edi
  00049	5e		 pop	 esi
  0004a	5b		 pop	 ebx
  0004b	81 c4 cc 00 00
	00		 add	 esp, 204		; 000000ccH
  00051	3b ec		 cmp	 ebp, esp
  00053	e8 00 00 00 00	 call	 __RTC_CheckEsp
  00058	8b e5		 mov	 esp, ebp
  0005a	5d		 pop	 ebp
  0005b	c3		 ret	 0
??1?$_Container_proxy_ptr12@V?$allocator@U_Container_proxy@std@@@std@@@std@@QAE@XZ ENDP ; std::_Container_proxy_ptr12<std::allocator<std::_Container_proxy> >::~_Container_proxy_ptr12<std::allocator<std::_Container_proxy> >
_TEXT	ENDS
; Function compile flags: /Odtp /RTCsu /ZI
; File C:\Program Files\Microsoft Visual Studio\2022\Community\VC\Tools\MSVC\14.42.34433\include\xmemory
;	COMDAT ??0?$_Container_proxy_ptr12@V?$allocator@U_Container_proxy@std@@@std@@@std@@QAE@AAV?$allocator@U_Container_proxy@std@@@1@AAU_Container_base12@1@@Z
_TEXT	SEGMENT
$T1 = -212						; size = 4
_this$ = -8						; size = 4
__Al_$ = 8						; size = 4
__Mycont$ = 12						; size = 4
??0?$_Container_proxy_ptr12@V?$allocator@U_Container_proxy@std@@@std@@@std@@QAE@AAV?$allocator@U_Container_proxy@std@@@1@AAU_Container_base12@1@@Z PROC ; std::_Container_proxy_ptr12<std::allocator<std::_Container_proxy> >::_Container_proxy_ptr12<std::allocator<std::_Container_proxy> >, COMDAT
; _this$ = ecx

; 1445 :     _CONSTEXPR20 _Container_proxy_ptr12(_Alloc& _Al_, _Container_base12& _Mycont) : _Al(_Al_) {

  00000	55		 push	 ebp
  00001	8b ec		 mov	 ebp, esp
  00003	81 ec d8 00 00
	00		 sub	 esp, 216		; 000000d8H
  00009	53		 push	 ebx
  0000a	56		 push	 esi
  0000b	57		 push	 edi
  0000c	51		 push	 ecx
  0000d	8d 7d e8	 lea	 edi, DWORD PTR [ebp-24]
  00010	b9 06 00 00 00	 mov	 ecx, 6
  00015	b8 cc cc cc cc	 mov	 eax, -858993460		; ccccccccH
  0001a	f3 ab		 rep stosd
  0001c	59		 pop	 ecx
  0001d	89 4d f8	 mov	 DWORD PTR _this$[ebp], ecx
  00020	b9 00 00 00 00	 mov	 ecx, OFFSET __03BD3355_xmemory
  00025	e8 00 00 00 00	 call	 @__CheckForDebuggerJustMyCode@4
  0002a	90		 npad	 1
  0002b	8b 4d f8	 mov	 ecx, DWORD PTR _this$[ebp]
  0002e	e8 00 00 00 00	 call	 ??0_Basic_container_proxy_ptr12@std@@IAE@XZ ; std::_Basic_container_proxy_ptr12::_Basic_container_proxy_ptr12
  00033	90		 npad	 1
  00034	8b 45 f8	 mov	 eax, DWORD PTR _this$[ebp]
  00037	8b 4d 08	 mov	 ecx, DWORD PTR __Al_$[ebp]
  0003a	89 48 04	 mov	 DWORD PTR [eax+4], ecx

; 1446 :         // create a new _Container_proxy pointing at _Mycont
; 1447 :         _Ptr = _Unfancy(_Al_.allocate(1));

  0003d	6a 01		 push	 1
  0003f	8b 4d 08	 mov	 ecx, DWORD PTR __Al_$[ebp]
  00042	e8 00 00 00 00	 call	 ?allocate@?$allocator@U_Container_proxy@std@@@std@@QAEPAU_Container_proxy@2@I@Z ; std::allocator<std::_Container_proxy>::allocate
  00047	50		 push	 eax
  00048	e8 00 00 00 00	 call	 ??$_Unfancy@U_Container_proxy@std@@@std@@YAPAU_Container_proxy@0@PAU10@@Z ; std::_Unfancy<std::_Container_proxy>
  0004d	83 c4 04	 add	 esp, 4
  00050	8b 4d f8	 mov	 ecx, DWORD PTR _this$[ebp]
  00053	89 01		 mov	 DWORD PTR [ecx], eax

; 1448 :         _Construct_in_place(*_Ptr, _STD addressof(_Mycont));

  00055	8b 45 0c	 mov	 eax, DWORD PTR __Mycont$[ebp]
  00058	50		 push	 eax
  00059	e8 00 00 00 00	 call	 ??$addressof@U_Container_base12@std@@@std@@YAPAU_Container_base12@0@AAU10@@Z ; std::addressof<std::_Container_base12>
  0005e	83 c4 04	 add	 esp, 4
  00061	89 85 2c ff ff
	ff		 mov	 DWORD PTR $T1[ebp], eax
  00067	8d 8d 2c ff ff
	ff		 lea	 ecx, DWORD PTR $T1[ebp]
  0006d	51		 push	 ecx
  0006e	8b 55 f8	 mov	 edx, DWORD PTR _this$[ebp]
  00071	8b 02		 mov	 eax, DWORD PTR [edx]
  00073	50		 push	 eax
  00074	e8 00 00 00 00	 call	 ??$_Construct_in_place@U_Container_proxy@std@@PAU_Container_base12@2@@std@@YAXAAU_Container_proxy@0@$$QAPAU_Container_base12@0@@Z ; std::_Construct_in_place<std::_Container_proxy,std::_Container_base12 *>
  00079	83 c4 08	 add	 esp, 8

; 1449 :         _Mycont._Myproxy = _Ptr;

  0007c	8b 45 0c	 mov	 eax, DWORD PTR __Mycont$[ebp]
  0007f	8b 4d f8	 mov	 ecx, DWORD PTR _this$[ebp]
  00082	8b 11		 mov	 edx, DWORD PTR [ecx]
  00084	89 10		 mov	 DWORD PTR [eax], edx

; 1450 :     }

  00086	8b 45 f8	 mov	 eax, DWORD PTR _this$[ebp]
  00089	5f		 pop	 edi
  0008a	5e		 pop	 esi
  0008b	5b		 pop	 ebx
  0008c	81 c4 d8 00 00
	00		 add	 esp, 216		; 000000d8H
  00092	3b ec		 cmp	 ebp, esp
  00094	e8 00 00 00 00	 call	 __RTC_CheckEsp
  00099	8b e5		 mov	 esp, ebp
  0009b	5d		 pop	 ebp
  0009c	c2 08 00	 ret	 8
??0?$_Container_proxy_ptr12@V?$allocator@U_Container_proxy@std@@@std@@@std@@QAE@AAV?$allocator@U_Container_proxy@std@@@1@AAU_Container_base12@1@@Z ENDP ; std::_Container_proxy_ptr12<std::allocator<std::_Container_proxy> >::_Container_proxy_ptr12<std::allocator<std::_Container_proxy> >
_TEXT	ENDS
; Function compile flags: /Odtp /RTCsu /ZI
; File C:\Program Files\Microsoft Visual Studio\2022\Community\VC\Tools\MSVC\14.42.34433\include\xmemory
;	COMDAT ??$_Deallocate_plain@V?$allocator@U_Container_proxy@std@@@std@@@std@@YAXAAV?$allocator@U_Container_proxy@std@@@0@QAU_Container_proxy@0@@Z
_TEXT	SEGMENT
__$EHRec$ = -12						; size = 12
__Al$ = 8						; size = 4
__Ptr$ = 12						; size = 4
??$_Deallocate_plain@V?$allocator@U_Container_proxy@std@@@std@@@std@@YAXAAV?$allocator@U_Container_proxy@std@@@0@QAU_Container_proxy@0@@Z PROC ; std::_Deallocate_plain<std::allocator<std::_Container_proxy> >, COMDAT

; 1099 : _CONSTEXPR20 void _Deallocate_plain(_Alloc& _Al, typename _Alloc::value_type* const _Ptr) noexcept {

  00000	55		 push	 ebp
  00001	8b ec		 mov	 ebp, esp
  00003	6a ff		 push	 -1
  00005	68 00 00 00 00	 push	 __ehhandler$??$_Deallocate_plain@V?$allocator@U_Container_proxy@std@@@std@@@std@@YAXAAV?$allocator@U_Container_proxy@std@@@0@QAU_Container_proxy@0@@Z
  0000a	64 a1 00 00 00
	00		 mov	 eax, DWORD PTR fs:0
  00010	50		 push	 eax
  00011	81 ec c0 00 00
	00		 sub	 esp, 192		; 000000c0H
  00017	53		 push	 ebx
  00018	56		 push	 esi
  00019	57		 push	 edi
  0001a	8d 7d f4	 lea	 edi, DWORD PTR [ebp-12]
  0001d	33 c9		 xor	 ecx, ecx
  0001f	b8 cc cc cc cc	 mov	 eax, -858993460		; ccccccccH
  00024	f3 ab		 rep stosd
  00026	a1 00 00 00 00	 mov	 eax, DWORD PTR ___security_cookie
  0002b	33 c5		 xor	 eax, ebp
  0002d	50		 push	 eax
  0002e	8d 45 f4	 lea	 eax, DWORD PTR __$EHRec$[ebp]
  00031	64 a3 00 00 00
	00		 mov	 DWORD PTR fs:0, eax
  00037	b9 00 00 00 00	 mov	 ecx, OFFSET __03BD3355_xmemory
  0003c	e8 00 00 00 00	 call	 @__CheckForDebuggerJustMyCode@4
  00041	90		 npad	 1

; 1100 :     // deallocate a plain pointer using an allocator
; 1101 :     using _Alloc_traits = allocator_traits<_Alloc>;
; 1102 :     if constexpr (is_same_v<_Alloc_ptr_t<_Alloc>, typename _Alloc::value_type*>) {
; 1103 :         _Alloc_traits::deallocate(_Al, _Ptr, 1);

  00042	6a 01		 push	 1
  00044	8b 45 0c	 mov	 eax, DWORD PTR __Ptr$[ebp]
  00047	50		 push	 eax
  00048	8b 4d 08	 mov	 ecx, DWORD PTR __Al$[ebp]
  0004b	51		 push	 ecx
  0004c	e8 00 00 00 00	 call	 ?deallocate@?$_Default_allocator_traits@V?$allocator@U_Container_proxy@std@@@std@@@std@@SAXAAV?$allocator@U_Container_proxy@std@@@2@QAU_Container_proxy@2@I@Z ; std::_Default_allocator_traits<std::allocator<std::_Container_proxy> >::deallocate
  00051	83 c4 0c	 add	 esp, 12			; 0000000cH

; 1104 :     } else {
; 1105 :         using _Ptr_traits = pointer_traits<_Alloc_ptr_t<_Alloc>>;
; 1106 :         _Alloc_traits::deallocate(_Al, _Ptr_traits::pointer_to(*_Ptr), 1);
; 1107 :     }
; 1108 : }

  00054	8b 4d f4	 mov	 ecx, DWORD PTR __$EHRec$[ebp]
  00057	64 89 0d 00 00
	00 00		 mov	 DWORD PTR fs:0, ecx
  0005e	59		 pop	 ecx
  0005f	5f		 pop	 edi
  00060	5e		 pop	 esi
  00061	5b		 pop	 ebx
  00062	81 c4 cc 00 00
	00		 add	 esp, 204		; 000000ccH
  00068	3b ec		 cmp	 ebp, esp
  0006a	e8 00 00 00 00	 call	 __RTC_CheckEsp
  0006f	8b e5		 mov	 esp, ebp
  00071	5d		 pop	 ebp
  00072	c3		 ret	 0
  00073	cc		 int	 3
  00074	cc		 int	 3
  00075	cc		 int	 3
  00076	cc		 int	 3
  00077	cc		 int	 3
_TEXT	ENDS
;	COMDAT text$x
text$x	SEGMENT
__ehhandler$??$_Deallocate_plain@V?$allocator@U_Container_proxy@std@@@std@@@std@@YAXAAV?$allocator@U_Container_proxy@std@@@0@QAU_Container_proxy@0@@Z:
  00000	90		 npad	 1
  00001	90		 npad	 1
  00002	8b 54 24 08	 mov	 edx, DWORD PTR [esp+8]
  00006	8d 42 0c	 lea	 eax, DWORD PTR [edx+12]
  00009	8b 8a 30 ff ff
	ff		 mov	 ecx, DWORD PTR [edx-208]
  0000f	33 c8		 xor	 ecx, eax
  00011	e8 00 00 00 00	 call	 @__security_check_cookie@4
  00016	b8 00 00 00 00	 mov	 eax, OFFSET __ehfuncinfo$??$_Deallocate_plain@V?$allocator@U_Container_proxy@std@@@std@@@std@@YAXAAV?$allocator@U_Container_proxy@std@@@0@QAU_Container_proxy@0@@Z
  0001b	e9 00 00 00 00	 jmp	 ___CxxFrameHandler3
text$x	ENDS
??$_Deallocate_plain@V?$allocator@U_Container_proxy@std@@@std@@@std@@YAXAAV?$allocator@U_Container_proxy@std@@@0@QAU_Container_proxy@0@@Z ENDP ; std::_Deallocate_plain<std::allocator<std::_Container_proxy> >
; Function compile flags: /Odtp /RTCsu /ZI
; File C:\Program Files\Microsoft Visual Studio\2022\Community\VC\Tools\MSVC\14.42.34433\include\ostream
;	COMDAT ??Bsentry@?$basic_ostream@DU?$char_traits@D@std@@@std@@QBE_NXZ
_TEXT	SEGMENT
_this$ = -8						; size = 4
??Bsentry@?$basic_ostream@DU?$char_traits@D@std@@@std@@QBE_NXZ PROC ; std::basic_ostream<char,std::char_traits<char> >::sentry::operator bool, COMDAT
; _this$ = ecx

; 128  :         explicit __CLR_OR_THIS_CALL operator bool() const {

  00000	55		 push	 ebp
  00001	8b ec		 mov	 ebp, esp
  00003	81 ec cc 00 00
	00		 sub	 esp, 204		; 000000ccH
  00009	53		 push	 ebx
  0000a	56		 push	 esi
  0000b	57		 push	 edi
  0000c	51		 push	 ecx
  0000d	8d 7d f4	 lea	 edi, DWORD PTR [ebp-12]
  00010	b9 03 00 00 00	 mov	 ecx, 3
  00015	b8 cc cc cc cc	 mov	 eax, -858993460		; ccccccccH
  0001a	f3 ab		 rep stosd
  0001c	59		 pop	 ecx
  0001d	89 4d f8	 mov	 DWORD PTR _this$[ebp], ecx
  00020	b9 00 00 00 00	 mov	 ecx, OFFSET __BB401B3C_ostream
  00025	e8 00 00 00 00	 call	 @__CheckForDebuggerJustMyCode@4
  0002a	90		 npad	 1

; 129  :             return _Ok;

  0002b	8b 45 f8	 mov	 eax, DWORD PTR _this$[ebp]
  0002e	0f b6 40 04	 movzx	 eax, BYTE PTR [eax+4]

; 130  :         }

  00032	5f		 pop	 edi
  00033	5e		 pop	 esi
  00034	5b		 pop	 ebx
  00035	81 c4 cc 00 00
	00		 add	 esp, 204		; 000000ccH
  0003b	3b ec		 cmp	 ebp, esp
  0003d	e8 00 00 00 00	 call	 __RTC_CheckEsp
  00042	8b e5		 mov	 esp, ebp
  00044	5d		 pop	 ebp
  00045	c3		 ret	 0
??Bsentry@?$basic_ostream@DU?$char_traits@D@std@@@std@@QBE_NXZ ENDP ; std::basic_ostream<char,std::char_traits<char> >::sentry::operator bool
_TEXT	ENDS
; Function compile flags: /Odtp /RTCsu /ZI
; File C:\Program Files\Microsoft Visual Studio\2022\Community\VC\Tools\MSVC\14.42.34433\include\ostream
;	COMDAT ??1sentry@?$basic_ostream@DU?$char_traits@D@std@@@std@@QAE@XZ
_TEXT	SEGMENT
tv72 = -217						; size = 1
__Zero_uncaught_exceptions$ = -17			; size = 1
_this$ = -8						; size = 4
??1sentry@?$basic_ostream@DU?$char_traits@D@std@@@std@@QAE@XZ PROC ; std::basic_ostream<char,std::char_traits<char> >::sentry::~sentry, COMDAT
; _this$ = ecx

; 113  :         __CLR_OR_THIS_CALL ~sentry() noexcept {

  00000	55		 push	 ebp
  00001	8b ec		 mov	 ebp, esp
  00003	81 ec dc 00 00
	00		 sub	 esp, 220		; 000000dcH
  00009	53		 push	 ebx
  0000a	56		 push	 esi
  0000b	57		 push	 edi
  0000c	51		 push	 ecx
  0000d	8d 7d e4	 lea	 edi, DWORD PTR [ebp-28]
  00010	b9 07 00 00 00	 mov	 ecx, 7
  00015	b8 cc cc cc cc	 mov	 eax, -858993460		; ccccccccH
  0001a	f3 ab		 rep stosd
  0001c	59		 pop	 ecx
  0001d	89 4d f8	 mov	 DWORD PTR _this$[ebp], ecx
  00020	b9 00 00 00 00	 mov	 ecx, OFFSET __BB401B3C_ostream
  00025	e8 00 00 00 00	 call	 @__CheckForDebuggerJustMyCode@4
  0002a	90		 npad	 1

; 114  : #if !_HAS_EXCEPTIONS
; 115  :             const bool _Zero_uncaught_exceptions = true;
; 116  : #elif _HAS_DEPRECATED_UNCAUGHT_EXCEPTION
; 117  :             const bool _Zero_uncaught_exceptions = !_STD uncaught_exception(); // TRANSITION, ArchivedOS-12000909

  0002b	e8 00 00 00 00	 call	 ?uncaught_exception@std@@YA_NXZ ; std::uncaught_exception
  00030	0f b6 c0	 movzx	 eax, al
  00033	85 c0		 test	 eax, eax
  00035	75 09		 jne	 SHORT $LN4@sentry
  00037	c6 85 27 ff ff
	ff 01		 mov	 BYTE PTR tv72[ebp], 1
  0003e	eb 07		 jmp	 SHORT $LN5@sentry
$LN4@sentry:
  00040	c6 85 27 ff ff
	ff 00		 mov	 BYTE PTR tv72[ebp], 0
$LN5@sentry:
  00047	8a 8d 27 ff ff
	ff		 mov	 cl, BYTE PTR tv72[ebp]
  0004d	88 4d ef	 mov	 BYTE PTR __Zero_uncaught_exceptions$[ebp], cl

; 118  : #else // ^^^ _HAS_DEPRECATED_UNCAUGHT_EXCEPTION / !_HAS_DEPRECATED_UNCAUGHT_EXCEPTION vvv
; 119  :             const bool _Zero_uncaught_exceptions = _STD uncaught_exceptions() == 0;
; 120  : #endif // ^^^ !_HAS_DEPRECATED_UNCAUGHT_EXCEPTION ^^^
; 121  : 
; 122  :             if (_Zero_uncaught_exceptions) {

  00050	0f b6 45 ef	 movzx	 eax, BYTE PTR __Zero_uncaught_exceptions$[ebp]
  00054	85 c0		 test	 eax, eax
  00056	74 15		 je	 SHORT $LN2@sentry

; 123  :                 this->_Myostr._Osfx();

  00058	8b f4		 mov	 esi, esp
  0005a	8b 45 f8	 mov	 eax, DWORD PTR _this$[ebp]
  0005d	8b 08		 mov	 ecx, DWORD PTR [eax]
  0005f	ff 15 00 00 00
	00		 call	 DWORD PTR __imp_?_Osfx@?$basic_ostream@DU?$char_traits@D@std@@@std@@QAEXXZ
  00065	3b f4		 cmp	 esi, esp
  00067	e8 00 00 00 00	 call	 __RTC_CheckEsp
  0006c	90		 npad	 1
$LN2@sentry:

; 124  :             }
; 125  :         }

  0006d	8b 4d f8	 mov	 ecx, DWORD PTR _this$[ebp]
  00070	e8 00 00 00 00	 call	 ??1_Sentry_base@?$basic_ostream@DU?$char_traits@D@std@@@std@@QAE@XZ ; std::basic_ostream<char,std::char_traits<char> >::_Sentry_base::~_Sentry_base
  00075	90		 npad	 1
  00076	5f		 pop	 edi
  00077	5e		 pop	 esi
  00078	5b		 pop	 ebx
  00079	81 c4 dc 00 00
	00		 add	 esp, 220		; 000000dcH
  0007f	3b ec		 cmp	 ebp, esp
  00081	e8 00 00 00 00	 call	 __RTC_CheckEsp
  00086	8b e5		 mov	 esp, ebp
  00088	5d		 pop	 ebp
  00089	c3		 ret	 0
??1sentry@?$basic_ostream@DU?$char_traits@D@std@@@std@@QAE@XZ ENDP ; std::basic_ostream<char,std::char_traits<char> >::sentry::~sentry
_TEXT	ENDS
; Function compile flags: /Odtp /RTCsu /ZI
; File C:\Program Files\Microsoft Visual Studio\2022\Community\VC\Tools\MSVC\14.42.34433\include\ostream
;	COMDAT ??0sentry@?$basic_ostream@DU?$char_traits@D@std@@@std@@QAE@AAV12@@Z
_TEXT	SEGMENT
__Tied$ = -32						; size = 4
_this$ = -20						; size = 4
__$EHRec$ = -12						; size = 12
__Ostr$ = 8						; size = 4
??0sentry@?$basic_ostream@DU?$char_traits@D@std@@@std@@QAE@AAV12@@Z PROC ; std::basic_ostream<char,std::char_traits<char> >::sentry::sentry, COMDAT
; _this$ = ecx

; 96   :         explicit __CLR_OR_THIS_CALL sentry(basic_ostream& _Ostr) : _Sentry_base(_Ostr) {

  00000	55		 push	 ebp
  00001	8b ec		 mov	 ebp, esp
  00003	6a ff		 push	 -1
  00005	68 00 00 00 00	 push	 __ehhandler$??0sentry@?$basic_ostream@DU?$char_traits@D@std@@@std@@QAE@AAV12@@Z
  0000a	64 a1 00 00 00
	00		 mov	 eax, DWORD PTR fs:0
  00010	50		 push	 eax
  00011	81 ec d8 00 00
	00		 sub	 esp, 216		; 000000d8H
  00017	53		 push	 ebx
  00018	56		 push	 esi
  00019	57		 push	 edi
  0001a	51		 push	 ecx
  0001b	8d 7d dc	 lea	 edi, DWORD PTR [ebp-36]
  0001e	b9 06 00 00 00	 mov	 ecx, 6
  00023	b8 cc cc cc cc	 mov	 eax, -858993460		; ccccccccH
  00028	f3 ab		 rep stosd
  0002a	59		 pop	 ecx
  0002b	a1 00 00 00 00	 mov	 eax, DWORD PTR ___security_cookie
  00030	33 c5		 xor	 eax, ebp
  00032	50		 push	 eax
  00033	8d 45 f4	 lea	 eax, DWORD PTR __$EHRec$[ebp]
  00036	64 a3 00 00 00
	00		 mov	 DWORD PTR fs:0, eax
  0003c	89 4d ec	 mov	 DWORD PTR _this$[ebp], ecx
  0003f	b9 00 00 00 00	 mov	 ecx, OFFSET __BB401B3C_ostream
  00044	e8 00 00 00 00	 call	 @__CheckForDebuggerJustMyCode@4
  00049	90		 npad	 1
  0004a	8b 45 08	 mov	 eax, DWORD PTR __Ostr$[ebp]
  0004d	50		 push	 eax
  0004e	8b 4d ec	 mov	 ecx, DWORD PTR _this$[ebp]
  00051	e8 00 00 00 00	 call	 ??0_Sentry_base@?$basic_ostream@DU?$char_traits@D@std@@@std@@QAE@AAV12@@Z ; std::basic_ostream<char,std::char_traits<char> >::_Sentry_base::_Sentry_base
  00056	c7 45 fc 00 00
	00 00		 mov	 DWORD PTR __$EHRec$[ebp+8], 0

; 97   :             if (!_Ostr.good()) {

  0005d	8b 45 08	 mov	 eax, DWORD PTR __Ostr$[ebp]
  00060	8b 08		 mov	 ecx, DWORD PTR [eax]
  00062	8b 55 08	 mov	 edx, DWORD PTR __Ostr$[ebp]
  00065	03 51 04	 add	 edx, DWORD PTR [ecx+4]
  00068	8b f4		 mov	 esi, esp
  0006a	8b ca		 mov	 ecx, edx
  0006c	ff 15 00 00 00
	00		 call	 DWORD PTR __imp_?good@ios_base@std@@QBE_NXZ
  00072	3b f4		 cmp	 esi, esp
  00074	e8 00 00 00 00	 call	 __RTC_CheckEsp
  00079	0f b6 c0	 movzx	 eax, al
  0007c	85 c0		 test	 eax, eax
  0007e	75 09		 jne	 SHORT $LN2@sentry

; 98   :                 _Ok = false;

  00080	8b 45 ec	 mov	 eax, DWORD PTR _this$[ebp]
  00083	c6 40 04 00	 mov	 BYTE PTR [eax+4], 0

; 99   :                 return;

  00087	eb 74		 jmp	 SHORT $LN1@sentry
$LN2@sentry:

; 100  :             }
; 101  : 
; 102  :             const auto _Tied = _Ostr.tie();

  00089	8b 45 08	 mov	 eax, DWORD PTR __Ostr$[ebp]
  0008c	8b 08		 mov	 ecx, DWORD PTR [eax]
  0008e	8b 55 08	 mov	 edx, DWORD PTR __Ostr$[ebp]
  00091	03 51 04	 add	 edx, DWORD PTR [ecx+4]
  00094	8b f4		 mov	 esi, esp
  00096	8b ca		 mov	 ecx, edx
  00098	ff 15 00 00 00
	00		 call	 DWORD PTR __imp_?tie@?$basic_ios@DU?$char_traits@D@std@@@std@@QBEPAV?$basic_ostream@DU?$char_traits@D@std@@@2@XZ
  0009e	3b f4		 cmp	 esi, esp
  000a0	e8 00 00 00 00	 call	 __RTC_CheckEsp
  000a5	89 45 e0	 mov	 DWORD PTR __Tied$[ebp], eax

; 103  :             if (!_Tied || _Tied == _STD addressof(_Ostr)) {

  000a8	83 7d e0 00	 cmp	 DWORD PTR __Tied$[ebp], 0
  000ac	74 11		 je	 SHORT $LN4@sentry
  000ae	8b 45 08	 mov	 eax, DWORD PTR __Ostr$[ebp]
  000b1	50		 push	 eax
  000b2	e8 00 00 00 00	 call	 ??$addressof@V?$basic_ostream@DU?$char_traits@D@std@@@std@@@std@@YAPAV?$basic_ostream@DU?$char_traits@D@std@@@0@AAV10@@Z ; std::addressof<std::basic_ostream<char,std::char_traits<char> > >
  000b7	83 c4 04	 add	 esp, 4
  000ba	39 45 e0	 cmp	 DWORD PTR __Tied$[ebp], eax
  000bd	75 09		 jne	 SHORT $LN3@sentry
$LN4@sentry:

; 104  :                 _Ok = true;

  000bf	8b 45 ec	 mov	 eax, DWORD PTR _this$[ebp]
  000c2	c6 40 04 01	 mov	 BYTE PTR [eax+4], 1

; 105  :                 return;

  000c6	eb 35		 jmp	 SHORT $LN1@sentry
$LN3@sentry:

; 106  :             }
; 107  : 
; 108  :             _Tied->flush();

  000c8	8b f4		 mov	 esi, esp
  000ca	8b 4d e0	 mov	 ecx, DWORD PTR __Tied$[ebp]
  000cd	ff 15 00 00 00
	00		 call	 DWORD PTR __imp_?flush@?$basic_ostream@DU?$char_traits@D@std@@@std@@QAEAAV12@XZ
  000d3	3b f4		 cmp	 esi, esp
  000d5	e8 00 00 00 00	 call	 __RTC_CheckEsp
  000da	90		 npad	 1

; 109  :             _Ok = _Ostr.good(); // store test only after flushing tie

  000db	8b 45 08	 mov	 eax, DWORD PTR __Ostr$[ebp]
  000de	8b 08		 mov	 ecx, DWORD PTR [eax]
  000e0	8b 55 08	 mov	 edx, DWORD PTR __Ostr$[ebp]
  000e3	03 51 04	 add	 edx, DWORD PTR [ecx+4]
  000e6	8b f4		 mov	 esi, esp
  000e8	8b ca		 mov	 ecx, edx
  000ea	ff 15 00 00 00
	00		 call	 DWORD PTR __imp_?good@ios_base@std@@QBE_NXZ
  000f0	3b f4		 cmp	 esi, esp
  000f2	e8 00 00 00 00	 call	 __RTC_CheckEsp
  000f7	8b 4d ec	 mov	 ecx, DWORD PTR _this$[ebp]
  000fa	88 41 04	 mov	 BYTE PTR [ecx+4], al
$LN1@sentry:

; 110  :         }

  000fd	c7 45 fc ff ff
	ff ff		 mov	 DWORD PTR __$EHRec$[ebp+8], -1
  00104	8b 45 ec	 mov	 eax, DWORD PTR _this$[ebp]
  00107	8b 4d f4	 mov	 ecx, DWORD PTR __$EHRec$[ebp]
  0010a	64 89 0d 00 00
	00 00		 mov	 DWORD PTR fs:0, ecx
  00111	59		 pop	 ecx
  00112	5f		 pop	 edi
  00113	5e		 pop	 esi
  00114	5b		 pop	 ebx
  00115	81 c4 e4 00 00
	00		 add	 esp, 228		; 000000e4H
  0011b	3b ec		 cmp	 ebp, esp
  0011d	e8 00 00 00 00	 call	 __RTC_CheckEsp
  00122	8b e5		 mov	 esp, ebp
  00124	5d		 pop	 ebp
  00125	c2 04 00	 ret	 4
_TEXT	ENDS
;	COMDAT text$x
text$x	SEGMENT
__unwindfunclet$??0sentry@?$basic_ostream@DU?$char_traits@D@std@@@std@@QAE@AAV12@@Z$0:
  00000	8b 4d ec	 mov	 ecx, DWORD PTR _this$[ebp]
  00003	e9 00 00 00 00	 jmp	 ??1_Sentry_base@?$basic_ostream@DU?$char_traits@D@std@@@std@@QAE@XZ ; std::basic_ostream<char,std::char_traits<char> >::_Sentry_base::~_Sentry_base
  00008	cc		 int	 3
  00009	cc		 int	 3
  0000a	cc		 int	 3
  0000b	cc		 int	 3
  0000c	cc		 int	 3
__ehhandler$??0sentry@?$basic_ostream@DU?$char_traits@D@std@@@std@@QAE@AAV12@@Z:
  0000d	90		 npad	 1
  0000e	90		 npad	 1
  0000f	8b 54 24 08	 mov	 edx, DWORD PTR [esp+8]
  00013	8d 42 0c	 lea	 eax, DWORD PTR [edx+12]
  00016	8b 8a 18 ff ff
	ff		 mov	 ecx, DWORD PTR [edx-232]
  0001c	33 c8		 xor	 ecx, eax
  0001e	e8 00 00 00 00	 call	 @__security_check_cookie@4
  00023	b8 00 00 00 00	 mov	 eax, OFFSET __ehfuncinfo$??0sentry@?$basic_ostream@DU?$char_traits@D@std@@@std@@QAE@AAV12@@Z
  00028	e9 00 00 00 00	 jmp	 ___CxxFrameHandler3
text$x	ENDS
??0sentry@?$basic_ostream@DU?$char_traits@D@std@@@std@@QAE@AAV12@@Z ENDP ; std::basic_ostream<char,std::char_traits<char> >::sentry::sentry
; Function compile flags: /Odtp /RTCsu /ZI
; File C:\Program Files\Microsoft Visual Studio\2022\Community\VC\Tools\MSVC\14.42.34433\include\ostream
;	COMDAT ??1_Sentry_base@?$basic_ostream@DU?$char_traits@D@std@@@std@@QAE@XZ
_TEXT	SEGMENT
tv72 = -232						; size = 4
__Rdbuf$ = -32						; size = 4
_this$ = -20						; size = 4
__$EHRec$ = -12						; size = 12
??1_Sentry_base@?$basic_ostream@DU?$char_traits@D@std@@@std@@QAE@XZ PROC ; std::basic_ostream<char,std::char_traits<char> >::_Sentry_base::~_Sentry_base, COMDAT
; _this$ = ecx

; 82   :         __CLR_OR_THIS_CALL ~_Sentry_base() noexcept { // destroy after unlocking

  00000	55		 push	 ebp
  00001	8b ec		 mov	 ebp, esp
  00003	6a ff		 push	 -1
  00005	68 00 00 00 00	 push	 __ehhandler$??1_Sentry_base@?$basic_ostream@DU?$char_traits@D@std@@@std@@QAE@XZ
  0000a	64 a1 00 00 00
	00		 mov	 eax, DWORD PTR fs:0
  00010	50		 push	 eax
  00011	81 ec dc 00 00
	00		 sub	 esp, 220		; 000000dcH
  00017	53		 push	 ebx
  00018	56		 push	 esi
  00019	57		 push	 edi
  0001a	51		 push	 ecx
  0001b	8d 7d d8	 lea	 edi, DWORD PTR [ebp-40]
  0001e	b9 07 00 00 00	 mov	 ecx, 7
  00023	b8 cc cc cc cc	 mov	 eax, -858993460		; ccccccccH
  00028	f3 ab		 rep stosd
  0002a	59		 pop	 ecx
  0002b	a1 00 00 00 00	 mov	 eax, DWORD PTR ___security_cookie
  00030	33 c5		 xor	 eax, ebp
  00032	50		 push	 eax
  00033	8d 45 f4	 lea	 eax, DWORD PTR __$EHRec$[ebp]
  00036	64 a3 00 00 00
	00		 mov	 DWORD PTR fs:0, eax
  0003c	89 4d ec	 mov	 DWORD PTR _this$[ebp], ecx
  0003f	b9 00 00 00 00	 mov	 ecx, OFFSET __BB401B3C_ostream
  00044	e8 00 00 00 00	 call	 @__CheckForDebuggerJustMyCode@4
  00049	90		 npad	 1

; 83   :             const auto _Rdbuf = _Myostr.rdbuf();

  0004a	8b 45 ec	 mov	 eax, DWORD PTR _this$[ebp]
  0004d	8b 08		 mov	 ecx, DWORD PTR [eax]
  0004f	89 8d 18 ff ff
	ff		 mov	 DWORD PTR tv72[ebp], ecx
  00055	8b 95 18 ff ff
	ff		 mov	 edx, DWORD PTR tv72[ebp]
  0005b	8b 02		 mov	 eax, DWORD PTR [edx]
  0005d	8b 8d 18 ff ff
	ff		 mov	 ecx, DWORD PTR tv72[ebp]
  00063	03 48 04	 add	 ecx, DWORD PTR [eax+4]
  00066	8b f4		 mov	 esi, esp
  00068	ff 15 00 00 00
	00		 call	 DWORD PTR __imp_?rdbuf@?$basic_ios@DU?$char_traits@D@std@@@std@@QBEPAV?$basic_streambuf@DU?$char_traits@D@std@@@2@XZ
  0006e	3b f4		 cmp	 esi, esp
  00070	e8 00 00 00 00	 call	 __RTC_CheckEsp
  00075	89 45 e0	 mov	 DWORD PTR __Rdbuf$[ebp], eax

; 84   :             if (_Rdbuf) {

  00078	83 7d e0 00	 cmp	 DWORD PTR __Rdbuf$[ebp], 0
  0007c	74 17		 je	 SHORT $LN2@Sentry_bas

; 85   :                 _Rdbuf->_Unlock();

  0007e	8b 45 e0	 mov	 eax, DWORD PTR __Rdbuf$[ebp]
  00081	8b 10		 mov	 edx, DWORD PTR [eax]
  00083	8b f4		 mov	 esi, esp
  00085	8b 4d e0	 mov	 ecx, DWORD PTR __Rdbuf$[ebp]
  00088	8b 42 08	 mov	 eax, DWORD PTR [edx+8]
  0008b	ff d0		 call	 eax
  0008d	3b f4		 cmp	 esi, esp
  0008f	e8 00 00 00 00	 call	 __RTC_CheckEsp
  00094	90		 npad	 1
$LN2@Sentry_bas:

; 86   :             }
; 87   :         }

  00095	8b 4d f4	 mov	 ecx, DWORD PTR __$EHRec$[ebp]
  00098	64 89 0d 00 00
	00 00		 mov	 DWORD PTR fs:0, ecx
  0009f	59		 pop	 ecx
  000a0	5f		 pop	 edi
  000a1	5e		 pop	 esi
  000a2	5b		 pop	 ebx
  000a3	81 c4 e8 00 00
	00		 add	 esp, 232		; 000000e8H
  000a9	3b ec		 cmp	 ebp, esp
  000ab	e8 00 00 00 00	 call	 __RTC_CheckEsp
  000b0	8b e5		 mov	 esp, ebp
  000b2	5d		 pop	 ebp
  000b3	c3		 ret	 0
  000b4	cc		 int	 3
  000b5	cc		 int	 3
  000b6	cc		 int	 3
  000b7	cc		 int	 3
  000b8	cc		 int	 3
_TEXT	ENDS
;	COMDAT text$x
text$x	SEGMENT
__ehhandler$??1_Sentry_base@?$basic_ostream@DU?$char_traits@D@std@@@std@@QAE@XZ:
  00000	90		 npad	 1
  00001	90		 npad	 1
  00002	8b 54 24 08	 mov	 edx, DWORD PTR [esp+8]
  00006	8d 42 0c	 lea	 eax, DWORD PTR [edx+12]
  00009	8b 8a 14 ff ff
	ff		 mov	 ecx, DWORD PTR [edx-236]
  0000f	33 c8		 xor	 ecx, eax
  00011	e8 00 00 00 00	 call	 @__security_check_cookie@4
  00016	b8 00 00 00 00	 mov	 eax, OFFSET __ehfuncinfo$??1_Sentry_base@?$basic_ostream@DU?$char_traits@D@std@@@std@@QAE@XZ
  0001b	e9 00 00 00 00	 jmp	 ___CxxFrameHandler3
text$x	ENDS
??1_Sentry_base@?$basic_ostream@DU?$char_traits@D@std@@@std@@QAE@XZ ENDP ; std::basic_ostream<char,std::char_traits<char> >::_Sentry_base::~_Sentry_base
; Function compile flags: /Odtp /RTCsu /ZI
; File C:\Program Files\Microsoft Visual Studio\2022\Community\VC\Tools\MSVC\14.42.34433\include\ostream
;	COMDAT ??0_Sentry_base@?$basic_ostream@DU?$char_traits@D@std@@@std@@QAE@AAV12@@Z
_TEXT	SEGMENT
tv73 = -220						; size = 4
__Rdbuf$ = -20						; size = 4
_this$ = -8						; size = 4
__Ostr$ = 8						; size = 4
??0_Sentry_base@?$basic_ostream@DU?$char_traits@D@std@@@std@@QAE@AAV12@@Z PROC ; std::basic_ostream<char,std::char_traits<char> >::_Sentry_base::_Sentry_base, COMDAT
; _this$ = ecx

; 75   :         __CLR_OR_THIS_CALL _Sentry_base(basic_ostream& _Ostr) : _Myostr(_Ostr) { // lock the stream buffer, if there

  00000	55		 push	 ebp
  00001	8b ec		 mov	 ebp, esp
  00003	81 ec dc 00 00
	00		 sub	 esp, 220		; 000000dcH
  00009	53		 push	 ebx
  0000a	56		 push	 esi
  0000b	57		 push	 edi
  0000c	51		 push	 ecx
  0000d	8d 7d e4	 lea	 edi, DWORD PTR [ebp-28]
  00010	b9 07 00 00 00	 mov	 ecx, 7
  00015	b8 cc cc cc cc	 mov	 eax, -858993460		; ccccccccH
  0001a	f3 ab		 rep stosd
  0001c	59		 pop	 ecx
  0001d	89 4d f8	 mov	 DWORD PTR _this$[ebp], ecx
  00020	b9 00 00 00 00	 mov	 ecx, OFFSET __BB401B3C_ostream
  00025	e8 00 00 00 00	 call	 @__CheckForDebuggerJustMyCode@4
  0002a	90		 npad	 1
  0002b	8b 45 f8	 mov	 eax, DWORD PTR _this$[ebp]
  0002e	8b 4d 08	 mov	 ecx, DWORD PTR __Ostr$[ebp]
  00031	89 08		 mov	 DWORD PTR [eax], ecx

; 76   :             const auto _Rdbuf = _Myostr.rdbuf();

  00033	8b 45 f8	 mov	 eax, DWORD PTR _this$[ebp]
  00036	8b 08		 mov	 ecx, DWORD PTR [eax]
  00038	89 8d 24 ff ff
	ff		 mov	 DWORD PTR tv73[ebp], ecx
  0003e	8b 95 24 ff ff
	ff		 mov	 edx, DWORD PTR tv73[ebp]
  00044	8b 02		 mov	 eax, DWORD PTR [edx]
  00046	8b 8d 24 ff ff
	ff		 mov	 ecx, DWORD PTR tv73[ebp]
  0004c	03 48 04	 add	 ecx, DWORD PTR [eax+4]
  0004f	8b f4		 mov	 esi, esp
  00051	ff 15 00 00 00
	00		 call	 DWORD PTR __imp_?rdbuf@?$basic_ios@DU?$char_traits@D@std@@@std@@QBEPAV?$basic_streambuf@DU?$char_traits@D@std@@@2@XZ
  00057	3b f4		 cmp	 esi, esp
  00059	e8 00 00 00 00	 call	 __RTC_CheckEsp
  0005e	89 45 ec	 mov	 DWORD PTR __Rdbuf$[ebp], eax

; 77   :             if (_Rdbuf) {

  00061	83 7d ec 00	 cmp	 DWORD PTR __Rdbuf$[ebp], 0
  00065	74 17		 je	 SHORT $LN2@Sentry_bas

; 78   :                 _Rdbuf->_Lock();

  00067	8b 45 ec	 mov	 eax, DWORD PTR __Rdbuf$[ebp]
  0006a	8b 10		 mov	 edx, DWORD PTR [eax]
  0006c	8b f4		 mov	 esi, esp
  0006e	8b 4d ec	 mov	 ecx, DWORD PTR __Rdbuf$[ebp]
  00071	8b 42 04	 mov	 eax, DWORD PTR [edx+4]
  00074	ff d0		 call	 eax
  00076	3b f4		 cmp	 esi, esp
  00078	e8 00 00 00 00	 call	 __RTC_CheckEsp
  0007d	90		 npad	 1
$LN2@Sentry_bas:

; 79   :             }
; 80   :         }

  0007e	8b 45 f8	 mov	 eax, DWORD PTR _this$[ebp]
  00081	5f		 pop	 edi
  00082	5e		 pop	 esi
  00083	5b		 pop	 ebx
  00084	81 c4 dc 00 00
	00		 add	 esp, 220		; 000000dcH
  0008a	3b ec		 cmp	 ebp, esp
  0008c	e8 00 00 00 00	 call	 __RTC_CheckEsp
  00091	8b e5		 mov	 esp, ebp
  00093	5d		 pop	 ebp
  00094	c2 04 00	 ret	 4
??0_Sentry_base@?$basic_ostream@DU?$char_traits@D@std@@@std@@QAE@AAV12@@Z ENDP ; std::basic_ostream<char,std::char_traits<char> >::_Sentry_base::_Sentry_base
_TEXT	ENDS
; Function compile flags: /Odtp /RTCsu /ZI
; File C:\Program Files\Microsoft Visual Studio\2022\Community\VC\Tools\MSVC\14.42.34433\include\xmemory
;	COMDAT ??$_Deallocate@$07@std@@YAXPAXI@Z
_TEXT	SEGMENT
__$EHRec$ = -12						; size = 12
__Ptr$ = 8						; size = 4
__Bytes$ = 12						; size = 4
??$_Deallocate@$07@std@@YAXPAXI@Z PROC			; std::_Deallocate<8>, COMDAT

; 230  : _CONSTEXPR20 void _Deallocate(void* _Ptr, size_t _Bytes) noexcept {

  00000	55		 push	 ebp
  00001	8b ec		 mov	 ebp, esp
  00003	6a ff		 push	 -1
  00005	68 00 00 00 00	 push	 __ehhandler$??$_Deallocate@$07@std@@YAXPAXI@Z
  0000a	64 a1 00 00 00
	00		 mov	 eax, DWORD PTR fs:0
  00010	50		 push	 eax
  00011	81 ec c0 00 00
	00		 sub	 esp, 192		; 000000c0H
  00017	53		 push	 ebx
  00018	56		 push	 esi
  00019	57		 push	 edi
  0001a	8d 7d f4	 lea	 edi, DWORD PTR [ebp-12]
  0001d	33 c9		 xor	 ecx, ecx
  0001f	b8 cc cc cc cc	 mov	 eax, -858993460		; ccccccccH
  00024	f3 ab		 rep stosd
  00026	a1 00 00 00 00	 mov	 eax, DWORD PTR ___security_cookie
  0002b	33 c5		 xor	 eax, ebp
  0002d	50		 push	 eax
  0002e	8d 45 f4	 lea	 eax, DWORD PTR __$EHRec$[ebp]
  00031	64 a3 00 00 00
	00		 mov	 DWORD PTR fs:0, eax
  00037	b9 00 00 00 00	 mov	 ecx, OFFSET __03BD3355_xmemory
  0003c	e8 00 00 00 00	 call	 @__CheckForDebuggerJustMyCode@4
  00041	90		 npad	 1

; 231  :     // deallocate storage allocated by _Allocate
; 232  : #if _HAS_CXX20 // TRANSITION, GH-1532
; 233  :     if (_STD is_constant_evaluated()) {
; 234  :         ::operator delete(_Ptr);
; 235  :         return;
; 236  :     }
; 237  : #endif // _HAS_CXX20
; 238  : 
; 239  : #ifdef __cpp_aligned_new
; 240  :     if constexpr (_Align > __STDCPP_DEFAULT_NEW_ALIGNMENT__) {
; 241  :         size_t _Passed_align = _Align;
; 242  : #if defined(_M_IX86) || defined(_M_X64)
; 243  :         if (_Bytes >= _Big_allocation_threshold) {
; 244  :             // boost the alignment of big allocations to help autovectorization
; 245  :             _Passed_align = (_STD max)(_Align, _Big_allocation_alignment);
; 246  :         }
; 247  : #endif // defined(_M_IX86) || defined(_M_X64)
; 248  :         ::operator delete(_Ptr, _Bytes, align_val_t{_Passed_align});
; 249  :     } else
; 250  : #endif // defined(__cpp_aligned_new)
; 251  :     {
; 252  : #if defined(_M_IX86) || defined(_M_X64)
; 253  :         if (_Bytes >= _Big_allocation_threshold) {

  00042	81 7d 0c 00 10
	00 00		 cmp	 DWORD PTR __Bytes$[ebp], 4096 ; 00001000H
  00049	72 10		 jb	 SHORT $LN2@Deallocate

; 254  :             // boost the alignment of big allocations to help autovectorization
; 255  :             _Adjust_manually_vector_aligned(_Ptr, _Bytes);

  0004b	8d 45 0c	 lea	 eax, DWORD PTR __Bytes$[ebp]
  0004e	50		 push	 eax
  0004f	8d 4d 08	 lea	 ecx, DWORD PTR __Ptr$[ebp]
  00052	51		 push	 ecx
  00053	e8 00 00 00 00	 call	 ?_Adjust_manually_vector_aligned@std@@YAXAAPAXAAI@Z ; std::_Adjust_manually_vector_aligned
  00058	83 c4 08	 add	 esp, 8
$LN2@Deallocate:

; 256  :         }
; 257  : #endif // defined(_M_IX86) || defined(_M_X64)
; 258  :         ::operator delete(_Ptr, _Bytes);

  0005b	8b 45 0c	 mov	 eax, DWORD PTR __Bytes$[ebp]
  0005e	50		 push	 eax
  0005f	8b 4d 08	 mov	 ecx, DWORD PTR __Ptr$[ebp]
  00062	51		 push	 ecx
  00063	e8 00 00 00 00	 call	 ??3@YAXPAXI@Z		; operator delete
  00068	83 c4 08	 add	 esp, 8

; 259  :     }
; 260  : }

  0006b	8b 4d f4	 mov	 ecx, DWORD PTR __$EHRec$[ebp]
  0006e	64 89 0d 00 00
	00 00		 mov	 DWORD PTR fs:0, ecx
  00075	59		 pop	 ecx
  00076	5f		 pop	 edi
  00077	5e		 pop	 esi
  00078	5b		 pop	 ebx
  00079	81 c4 cc 00 00
	00		 add	 esp, 204		; 000000ccH
  0007f	3b ec		 cmp	 ebp, esp
  00081	e8 00 00 00 00	 call	 __RTC_CheckEsp
  00086	8b e5		 mov	 esp, ebp
  00088	5d		 pop	 ebp
  00089	c3		 ret	 0
  0008a	cc		 int	 3
  0008b	cc		 int	 3
  0008c	cc		 int	 3
  0008d	cc		 int	 3
  0008e	cc		 int	 3
_TEXT	ENDS
;	COMDAT text$x
text$x	SEGMENT
__ehhandler$??$_Deallocate@$07@std@@YAXPAXI@Z:
  00000	90		 npad	 1
  00001	90		 npad	 1
  00002	8b 54 24 08	 mov	 edx, DWORD PTR [esp+8]
  00006	8d 42 0c	 lea	 eax, DWORD PTR [edx+12]
  00009	8b 8a 30 ff ff
	ff		 mov	 ecx, DWORD PTR [edx-208]
  0000f	33 c8		 xor	 ecx, eax
  00011	e8 00 00 00 00	 call	 @__security_check_cookie@4
  00016	b8 00 00 00 00	 mov	 eax, OFFSET __ehfuncinfo$??$_Deallocate@$07@std@@YAXPAXI@Z
  0001b	e9 00 00 00 00	 jmp	 ___CxxFrameHandler3
text$x	ENDS
??$_Deallocate@$07@std@@YAXPAXI@Z ENDP			; std::_Deallocate<8>
; Function compile flags: /Odtp /RTCsu /ZI
; File C:\Program Files\Microsoft Visual Studio\2022\Community\VC\Tools\MSVC\14.42.34433\include\utility
;	COMDAT ??$max@I@std@@YAABIABI0@Z
_TEXT	SEGMENT
tv65 = -208						; size = 4
$T1 = -200						; size = 4
__Left$ = 8						; size = 4
__Right$ = 12						; size = 4
??$max@I@std@@YAABIABI0@Z PROC				; std::max<unsigned int>, COMDAT

; 75   :         noexcept(_Left < _Right)) /* strengthened */ {

  00000	55		 push	 ebp
  00001	8b ec		 mov	 ebp, esp
  00003	81 ec d0 00 00
	00		 sub	 esp, 208		; 000000d0H
  00009	53		 push	 ebx
  0000a	56		 push	 esi
  0000b	57		 push	 edi
  0000c	8d 7d f0	 lea	 edi, DWORD PTR [ebp-16]
  0000f	b9 04 00 00 00	 mov	 ecx, 4
  00014	b8 cc cc cc cc	 mov	 eax, -858993460		; ccccccccH
  00019	f3 ab		 rep stosd
  0001b	b9 00 00 00 00	 mov	 ecx, OFFSET __69285096_utility
  00020	e8 00 00 00 00	 call	 @__CheckForDebuggerJustMyCode@4
  00025	90		 npad	 1

; 76   :     // return larger of _Left and _Right
; 77   :     return _Left < _Right ? _Right : _Left;

  00026	8b 45 08	 mov	 eax, DWORD PTR __Left$[ebp]
  00029	8b 4d 0c	 mov	 ecx, DWORD PTR __Right$[ebp]
  0002c	8b 10		 mov	 edx, DWORD PTR [eax]
  0002e	3b 11		 cmp	 edx, DWORD PTR [ecx]
  00030	73 0b		 jae	 SHORT $LN3@max
  00032	8b 45 0c	 mov	 eax, DWORD PTR __Right$[ebp]
  00035	89 85 30 ff ff
	ff		 mov	 DWORD PTR tv65[ebp], eax
  0003b	eb 09		 jmp	 SHORT $LN4@max
$LN3@max:
  0003d	8b 4d 08	 mov	 ecx, DWORD PTR __Left$[ebp]
  00040	89 8d 30 ff ff
	ff		 mov	 DWORD PTR tv65[ebp], ecx
$LN4@max:
  00046	8b 95 30 ff ff
	ff		 mov	 edx, DWORD PTR tv65[ebp]
  0004c	89 95 38 ff ff
	ff		 mov	 DWORD PTR $T1[ebp], edx
  00052	8b 85 38 ff ff
	ff		 mov	 eax, DWORD PTR $T1[ebp]

; 78   : }

  00058	5f		 pop	 edi
  00059	5e		 pop	 esi
  0005a	5b		 pop	 ebx
  0005b	81 c4 d0 00 00
	00		 add	 esp, 208		; 000000d0H
  00061	3b ec		 cmp	 ebp, esp
  00063	e8 00 00 00 00	 call	 __RTC_CheckEsp
  00068	8b e5		 mov	 esp, ebp
  0006a	5d		 pop	 ebp
  0006b	c3		 ret	 0
??$max@I@std@@YAABIABI0@Z ENDP				; std::max<unsigned int>
_TEXT	ENDS
; Function compile flags: /Odtp /RTCsu /ZI
; File C:\Program Files\Microsoft Visual Studio\2022\Community\VC\Tools\MSVC\14.42.34433\include\xmemory
;	COMDAT ??$_Destroy_in_place@PAD@std@@YAXAAPAD@Z
_TEXT	SEGMENT
__Obj$ = 8						; size = 4
??$_Destroy_in_place@PAD@std@@YAXAAPAD@Z PROC		; std::_Destroy_in_place<char *>, COMDAT

; 289  : _CONSTEXPR20 void _Destroy_in_place(_Ty& _Obj) noexcept {

  00000	55		 push	 ebp
  00001	8b ec		 mov	 ebp, esp
  00003	81 ec c0 00 00
	00		 sub	 esp, 192		; 000000c0H
  00009	53		 push	 ebx
  0000a	56		 push	 esi
  0000b	57		 push	 edi
  0000c	8b fd		 mov	 edi, ebp
  0000e	33 c9		 xor	 ecx, ecx
  00010	b8 cc cc cc cc	 mov	 eax, -858993460		; ccccccccH
  00015	f3 ab		 rep stosd
  00017	b9 00 00 00 00	 mov	 ecx, OFFSET __03BD3355_xmemory
  0001c	e8 00 00 00 00	 call	 @__CheckForDebuggerJustMyCode@4
  00021	90		 npad	 1

; 290  :     if constexpr (is_array_v<_Ty>) {
; 291  :         _STD _Destroy_range(_Obj, _Obj + extent_v<_Ty>);
; 292  :     } else {
; 293  :         _Obj.~_Ty();
; 294  :     }
; 295  : }

  00022	5f		 pop	 edi
  00023	5e		 pop	 esi
  00024	5b		 pop	 ebx
  00025	81 c4 c0 00 00
	00		 add	 esp, 192		; 000000c0H
  0002b	3b ec		 cmp	 ebp, esp
  0002d	e8 00 00 00 00	 call	 __RTC_CheckEsp
  00032	8b e5		 mov	 esp, ebp
  00034	5d		 pop	 ebp
  00035	c3		 ret	 0
??$_Destroy_in_place@PAD@std@@YAXAAPAD@Z ENDP		; std::_Destroy_in_place<char *>
_TEXT	ENDS
; Function compile flags: /Odtp /RTCsu /ZI
; File C:\Program Files\Microsoft Visual Studio\2022\Community\VC\Tools\MSVC\14.42.34433\include\xmemory
;	COMDAT ??$_Unfancy@D@std@@YAPADPAD@Z
_TEXT	SEGMENT
__Ptr$ = 8						; size = 4
??$_Unfancy@D@std@@YAPADPAD@Z PROC			; std::_Unfancy<char>, COMDAT

; 35   : _NODISCARD constexpr _Ty* _Unfancy(_Ty* _Ptr) noexcept { // do nothing for plain pointers

  00000	55		 push	 ebp
  00001	8b ec		 mov	 ebp, esp
  00003	81 ec c0 00 00
	00		 sub	 esp, 192		; 000000c0H
  00009	53		 push	 ebx
  0000a	56		 push	 esi
  0000b	57		 push	 edi
  0000c	8b fd		 mov	 edi, ebp
  0000e	33 c9		 xor	 ecx, ecx
  00010	b8 cc cc cc cc	 mov	 eax, -858993460		; ccccccccH
  00015	f3 ab		 rep stosd
  00017	b9 00 00 00 00	 mov	 ecx, OFFSET __03BD3355_xmemory
  0001c	e8 00 00 00 00	 call	 @__CheckForDebuggerJustMyCode@4
  00021	90		 npad	 1

; 36   :     return _Ptr;

  00022	8b 45 08	 mov	 eax, DWORD PTR __Ptr$[ebp]

; 37   : }

  00025	5f		 pop	 edi
  00026	5e		 pop	 esi
  00027	5b		 pop	 ebx
  00028	81 c4 c0 00 00
	00		 add	 esp, 192		; 000000c0H
  0002e	3b ec		 cmp	 ebp, esp
  00030	e8 00 00 00 00	 call	 __RTC_CheckEsp
  00035	8b e5		 mov	 esp, ebp
  00037	5d		 pop	 ebp
  00038	c3		 ret	 0
??$_Unfancy@D@std@@YAPADPAD@Z ENDP			; std::_Unfancy<char>
_TEXT	ENDS
; Function compile flags: /Odtp /RTCsu /ZI
; File C:\Program Files\Microsoft Visual Studio\2022\Community\VC\Tools\MSVC\14.42.34433\include\xstring
;	COMDAT ??$_Construct@$01PBD@?$basic_string@DU?$char_traits@D@std@@V?$allocator@D@2@@std@@AAEXQBDI@Z
_TEXT	SEGMENT
__New_ptr$ = -112					; size = 4
__New_capacity$ = -100					; size = 4
__Proxy$ = -88						; size = 8
_$S11$ = -69						; size = 1
__Alproxy$ = -60					; size = 4
__Al$ = -48						; size = 4
__My_data$ = -36					; size = 4
_this$ = -24						; size = 4
__$ArrayPad$ = -16					; size = 4
__$EHRec$ = -12						; size = 12
__Arg$ = 8						; size = 4
__Count$ = 12						; size = 4
??$_Construct@$01PBD@?$basic_string@DU?$char_traits@D@std@@V?$allocator@D@2@@std@@AAEXQBDI@Z PROC ; std::basic_string<char,std::char_traits<char>,std::allocator<char> >::_Construct<2,char const *>, COMDAT
; _this$ = ecx

; 852  :     _CONSTEXPR20 void _Construct(const _Char_or_ptr _Arg, _CRT_GUARDOVERFLOW const size_type _Count) {

  00000	55		 push	 ebp
  00001	8b ec		 mov	 ebp, esp
  00003	6a ff		 push	 -1
  00005	68 00 00 00 00	 push	 __ehhandler$??$_Construct@$01PBD@?$basic_string@DU?$char_traits@D@std@@V?$allocator@D@2@@std@@AAEXQBDI@Z
  0000a	64 a1 00 00 00
	00		 mov	 eax, DWORD PTR fs:0
  00010	50		 push	 eax
  00011	81 ec 28 01 00
	00		 sub	 esp, 296		; 00000128H
  00017	53		 push	 ebx
  00018	56		 push	 esi
  00019	57		 push	 edi
  0001a	51		 push	 ecx
  0001b	8d 7d 8c	 lea	 edi, DWORD PTR [ebp-116]
  0001e	b9 1a 00 00 00	 mov	 ecx, 26			; 0000001aH
  00023	b8 cc cc cc cc	 mov	 eax, -858993460		; ccccccccH
  00028	f3 ab		 rep stosd
  0002a	59		 pop	 ecx
  0002b	a1 00 00 00 00	 mov	 eax, DWORD PTR ___security_cookie
  00030	33 c5		 xor	 eax, ebp
  00032	89 45 f0	 mov	 DWORD PTR __$ArrayPad$[ebp], eax
  00035	50		 push	 eax
  00036	8d 45 f4	 lea	 eax, DWORD PTR __$EHRec$[ebp]
  00039	64 a3 00 00 00
	00		 mov	 DWORD PTR fs:0, eax
  0003f	89 4d e8	 mov	 DWORD PTR _this$[ebp], ecx
  00042	b9 00 00 00 00	 mov	 ecx, OFFSET __776EB5C9_xstring
  00047	e8 00 00 00 00	 call	 @__CheckForDebuggerJustMyCode@4
  0004c	90		 npad	 1

; 853  :         auto& _My_data = _Mypair._Myval2;

  0004d	8b 45 e8	 mov	 eax, DWORD PTR _this$[ebp]
  00050	89 45 dc	 mov	 DWORD PTR __My_data$[ebp], eax

; 854  :         _STL_INTERNAL_CHECK(!_My_data._Large_mode_engaged());
; 855  : 
; 856  :         if constexpr (_Strat == _Construct_strategy::_From_char) {
; 857  :             _STL_INTERNAL_STATIC_ASSERT(is_same_v<_Char_or_ptr, _Elem>);
; 858  :         } else {
; 859  :             _STL_INTERNAL_STATIC_ASSERT(_Is_elem_cptr<_Char_or_ptr>::value);
; 860  :         }
; 861  : 
; 862  :         if (_Count > max_size()) {

  00053	8b 4d e8	 mov	 ecx, DWORD PTR _this$[ebp]
  00056	e8 00 00 00 00	 call	 ?max_size@?$basic_string@DU?$char_traits@D@std@@V?$allocator@D@2@@std@@QBEIXZ ; std::basic_string<char,std::char_traits<char>,std::allocator<char> >::max_size
  0005b	39 45 0c	 cmp	 DWORD PTR __Count$[ebp], eax
  0005e	76 06		 jbe	 SHORT $LN2@Construct

; 863  :             _Xlen_string(); // result too long

  00060	e8 00 00 00 00	 call	 ?_Xlen_string@std@@YAXXZ ; std::_Xlen_string
  00065	90		 npad	 1
$LN2@Construct:

; 864  :         }
; 865  : 
; 866  :         auto& _Al       = _Getal();

  00066	8b 4d e8	 mov	 ecx, DWORD PTR _this$[ebp]
  00069	e8 00 00 00 00	 call	 ?_Getal@?$basic_string@DU?$char_traits@D@std@@V?$allocator@D@2@@std@@AAEAAV?$allocator@D@2@XZ ; std::basic_string<char,std::char_traits<char>,std::allocator<char> >::_Getal
  0006e	89 45 d0	 mov	 DWORD PTR __Al$[ebp], eax

; 867  :         auto&& _Alproxy = _GET_PROXY_ALLOCATOR(_Alty, _Al);

  00071	8b 45 d0	 mov	 eax, DWORD PTR __Al$[ebp]
  00074	50		 push	 eax
  00075	8d 4d bb	 lea	 ecx, DWORD PTR _$S11$[ebp]
  00078	e8 00 00 00 00	 call	 ??$?0D@?$allocator@U_Container_proxy@std@@@std@@QAE@ABV?$allocator@D@1@@Z ; std::allocator<std::_Container_proxy>::allocator<std::_Container_proxy><char>
  0007d	8d 4d bb	 lea	 ecx, DWORD PTR _$S11$[ebp]
  00080	89 4d c4	 mov	 DWORD PTR __Alproxy$[ebp], ecx

; 868  :         _Container_proxy_ptr<_Alty> _Proxy(_Alproxy, _My_data);

  00083	8b 45 dc	 mov	 eax, DWORD PTR __My_data$[ebp]
  00086	50		 push	 eax
  00087	8b 4d c4	 mov	 ecx, DWORD PTR __Alproxy$[ebp]
  0008a	51		 push	 ecx
  0008b	8d 4d a8	 lea	 ecx, DWORD PTR __Proxy$[ebp]
  0008e	e8 00 00 00 00	 call	 ??0?$_Container_proxy_ptr12@V?$allocator@U_Container_proxy@std@@@std@@@std@@QAE@AAV?$allocator@U_Container_proxy@std@@@1@AAU_Container_base12@1@@Z ; std::_Container_proxy_ptr12<std::allocator<std::_Container_proxy> >::_Container_proxy_ptr12<std::allocator<std::_Container_proxy> >
  00093	c7 45 fc 00 00
	00 00		 mov	 DWORD PTR __$EHRec$[ebp+8], 0

; 869  : 
; 870  :         if (_Count <= _Small_string_capacity) {

  0009a	83 7d 0c 0f	 cmp	 DWORD PTR __Count$[ebp], 15 ; 0000000fH
  0009e	77 46		 ja	 SHORT $LN3@Construct

; 871  :             _My_data._Mysize = _Count;

  000a0	8b 45 dc	 mov	 eax, DWORD PTR __My_data$[ebp]
  000a3	8b 4d 0c	 mov	 ecx, DWORD PTR __Count$[ebp]
  000a6	89 48 14	 mov	 DWORD PTR [eax+20], ecx

; 872  :             _My_data._Myres  = _Small_string_capacity;

  000a9	8b 45 dc	 mov	 eax, DWORD PTR __My_data$[ebp]
  000ac	c7 40 18 0f 00
	00 00		 mov	 DWORD PTR [eax+24], 15	; 0000000fH

; 873  : 
; 874  :             if constexpr (_Strat == _Construct_strategy::_From_char) {
; 875  :                 _Traits::assign(_My_data._Bx._Buf, _Count, _Arg);
; 876  :                 _Traits::assign(_My_data._Bx._Buf[_Count], _Elem());
; 877  :             } else if constexpr (_Strat == _Construct_strategy::_From_ptr) {
; 878  :                 _Traits::copy(_My_data._Bx._Buf, _Arg, _Count);
; 879  :                 _Traits::assign(_My_data._Bx._Buf[_Count], _Elem());
; 880  :             } else { // _Strat == _Construct_strategy::_From_string
; 881  : #ifdef _INSERT_STRING_ANNOTATION
; 882  :                 _Traits::copy(_My_data._Bx._Buf, _Arg, _Count + 1);
; 883  : #else // ^^^ _INSERT_STRING_ANNOTATION / !_INSERT_STRING_ANNOTATION vvv
; 884  :                 _Traits::copy(_My_data._Bx._Buf, _Arg, _BUF_SIZE);

  000b3	6a 10		 push	 16			; 00000010H
  000b5	8b 45 08	 mov	 eax, DWORD PTR __Arg$[ebp]
  000b8	50		 push	 eax
  000b9	8b 4d dc	 mov	 ecx, DWORD PTR __My_data$[ebp]
  000bc	83 c1 04	 add	 ecx, 4
  000bf	51		 push	 ecx
  000c0	e8 00 00 00 00	 call	 ?copy@?$_Char_traits@DH@std@@SAPADQADQBDI@Z ; std::_Char_traits<char,int>::copy
  000c5	83 c4 0c	 add	 esp, 12			; 0000000cH

; 885  : #endif // ^^^ !_INSERT_STRING_ANNOTATION ^^^
; 886  :             }
; 887  : 
; 888  :             _Proxy._Release();

  000c8	8d 4d a8	 lea	 ecx, DWORD PTR __Proxy$[ebp]
  000cb	e8 00 00 00 00	 call	 ?_Release@_Basic_container_proxy_ptr12@std@@QAEXXZ ; std::_Basic_container_proxy_ptr12::_Release
  000d0	90		 npad	 1

; 889  :             return;

  000d1	c7 45 fc ff ff
	ff ff		 mov	 DWORD PTR __$EHRec$[ebp+8], -1
  000d8	8d 4d a8	 lea	 ecx, DWORD PTR __Proxy$[ebp]
  000db	e8 00 00 00 00	 call	 ??1?$_Container_proxy_ptr12@V?$allocator@U_Container_proxy@std@@@std@@@std@@QAE@XZ ; std::_Container_proxy_ptr12<std::allocator<std::_Container_proxy> >::~_Container_proxy_ptr12<std::allocator<std::_Container_proxy> >
  000e0	90		 npad	 1
  000e1	e9 8b 00 00 00	 jmp	 $LN1@Construct
$LN3@Construct:

; 890  :         }
; 891  : 
; 892  :         size_type _New_capacity = _Calculate_growth(_Count, _Small_string_capacity, max_size());

  000e6	8b 4d e8	 mov	 ecx, DWORD PTR _this$[ebp]
  000e9	e8 00 00 00 00	 call	 ?max_size@?$basic_string@DU?$char_traits@D@std@@V?$allocator@D@2@@std@@QBEIXZ ; std::basic_string<char,std::char_traits<char>,std::allocator<char> >::max_size
  000ee	50		 push	 eax
  000ef	6a 0f		 push	 15			; 0000000fH
  000f1	8b 45 0c	 mov	 eax, DWORD PTR __Count$[ebp]
  000f4	50		 push	 eax
  000f5	e8 00 00 00 00	 call	 ?_Calculate_growth@?$basic_string@DU?$char_traits@D@std@@V?$allocator@D@2@@std@@CAIIII@Z ; std::basic_string<char,std::char_traits<char>,std::allocator<char> >::_Calculate_growth
  000fa	83 c4 0c	 add	 esp, 12			; 0000000cH
  000fd	89 45 9c	 mov	 DWORD PTR __New_capacity$[ebp], eax

; 893  :         const pointer _New_ptr  = _Allocate_for_capacity(_Al, _New_capacity); // throws

  00100	8d 45 9c	 lea	 eax, DWORD PTR __New_capacity$[ebp]
  00103	50		 push	 eax
  00104	8b 4d d0	 mov	 ecx, DWORD PTR __Al$[ebp]
  00107	51		 push	 ecx
  00108	e8 00 00 00 00	 call	 ??$_Allocate_for_capacity@$0A@@?$basic_string@DU?$char_traits@D@std@@V?$allocator@D@2@@std@@CAPADAAV?$allocator@D@1@AAI@Z ; std::basic_string<char,std::char_traits<char>,std::allocator<char> >::_Allocate_for_capacity<0>
  0010d	83 c4 08	 add	 esp, 8
  00110	89 45 90	 mov	 DWORD PTR __New_ptr$[ebp], eax

; 894  :         _Construct_in_place(_My_data._Bx._Ptr, _New_ptr);

  00113	8d 45 90	 lea	 eax, DWORD PTR __New_ptr$[ebp]
  00116	50		 push	 eax
  00117	8b 4d dc	 mov	 ecx, DWORD PTR __My_data$[ebp]
  0011a	83 c1 04	 add	 ecx, 4
  0011d	51		 push	 ecx
  0011e	e8 00 00 00 00	 call	 ??$_Construct_in_place@PADABQAD@std@@YAXAAPADABQAD@Z ; std::_Construct_in_place<char *,char * const &>
  00123	83 c4 08	 add	 esp, 8

; 895  : 
; 896  :         _My_data._Mysize = _Count;

  00126	8b 45 dc	 mov	 eax, DWORD PTR __My_data$[ebp]
  00129	8b 4d 0c	 mov	 ecx, DWORD PTR __Count$[ebp]
  0012c	89 48 14	 mov	 DWORD PTR [eax+20], ecx

; 897  :         _My_data._Myres  = _New_capacity;

  0012f	8b 45 dc	 mov	 eax, DWORD PTR __My_data$[ebp]
  00132	8b 4d 9c	 mov	 ecx, DWORD PTR __New_capacity$[ebp]
  00135	89 48 18	 mov	 DWORD PTR [eax+24], ecx

; 898  :         if constexpr (_Strat == _Construct_strategy::_From_char) {
; 899  :             _Traits::assign(_Unfancy(_New_ptr), _Count, _Arg);
; 900  :             _Traits::assign(_Unfancy(_New_ptr)[_Count], _Elem());
; 901  :         } else if constexpr (_Strat == _Construct_strategy::_From_ptr) {
; 902  :             _Traits::copy(_Unfancy(_New_ptr), _Arg, _Count);
; 903  :             _Traits::assign(_Unfancy(_New_ptr)[_Count], _Elem());
; 904  :         } else { // _Strat == _Construct_strategy::_From_string
; 905  :             _Traits::copy(_Unfancy(_New_ptr), _Arg, _Count + 1);

  00138	8b 45 0c	 mov	 eax, DWORD PTR __Count$[ebp]
  0013b	83 c0 01	 add	 eax, 1
  0013e	50		 push	 eax
  0013f	8b 4d 08	 mov	 ecx, DWORD PTR __Arg$[ebp]
  00142	51		 push	 ecx
  00143	8b 55 90	 mov	 edx, DWORD PTR __New_ptr$[ebp]
  00146	52		 push	 edx
  00147	e8 00 00 00 00	 call	 ??$_Unfancy@D@std@@YAPADPAD@Z ; std::_Unfancy<char>
  0014c	83 c4 04	 add	 esp, 4
  0014f	50		 push	 eax
  00150	e8 00 00 00 00	 call	 ?copy@?$_Char_traits@DH@std@@SAPADQADQBDI@Z ; std::_Char_traits<char,int>::copy
  00155	83 c4 0c	 add	 esp, 12			; 0000000cH

; 906  :         }
; 907  : 
; 908  :         _ASAN_STRING_CREATE(*this);
; 909  :         _Proxy._Release();

  00158	8d 4d a8	 lea	 ecx, DWORD PTR __Proxy$[ebp]
  0015b	e8 00 00 00 00	 call	 ?_Release@_Basic_container_proxy_ptr12@std@@QAEXXZ ; std::_Basic_container_proxy_ptr12::_Release
  00160	90		 npad	 1

; 910  :     }

  00161	c7 45 fc ff ff
	ff ff		 mov	 DWORD PTR __$EHRec$[ebp+8], -1
  00168	8d 4d a8	 lea	 ecx, DWORD PTR __Proxy$[ebp]
  0016b	e8 00 00 00 00	 call	 ??1?$_Container_proxy_ptr12@V?$allocator@U_Container_proxy@std@@@std@@@std@@QAE@XZ ; std::_Container_proxy_ptr12<std::allocator<std::_Container_proxy> >::~_Container_proxy_ptr12<std::allocator<std::_Container_proxy> >
  00170	90		 npad	 1
$LN1@Construct:
  00171	52		 push	 edx
  00172	8b cd		 mov	 ecx, ebp
  00174	50		 push	 eax
  00175	8d 15 00 00 00
	00		 lea	 edx, DWORD PTR $LN12@Construct
  0017b	e8 00 00 00 00	 call	 @_RTC_CheckStackVars@8
  00180	58		 pop	 eax
  00181	5a		 pop	 edx
  00182	8b 4d f4	 mov	 ecx, DWORD PTR __$EHRec$[ebp]
  00185	64 89 0d 00 00
	00 00		 mov	 DWORD PTR fs:0, ecx
  0018c	59		 pop	 ecx
  0018d	5f		 pop	 edi
  0018e	5e		 pop	 esi
  0018f	5b		 pop	 ebx
  00190	8b 4d f0	 mov	 ecx, DWORD PTR __$ArrayPad$[ebp]
  00193	33 cd		 xor	 ecx, ebp
  00195	e8 00 00 00 00	 call	 @__security_check_cookie@4
  0019a	81 c4 34 01 00
	00		 add	 esp, 308		; 00000134H
  001a0	3b ec		 cmp	 ebp, esp
  001a2	e8 00 00 00 00	 call	 __RTC_CheckEsp
  001a7	8b e5		 mov	 esp, ebp
  001a9	5d		 pop	 ebp
  001aa	c2 08 00	 ret	 8
  001ad	0f 1f 00	 npad	 3
$LN12@Construct:
  001b0	04 00 00 00	 DD	 4
  001b4	00 00 00 00	 DD	 $LN11@Construct
$LN11@Construct:
  001b8	bb ff ff ff	 DD	 -69			; ffffffbbH
  001bc	01 00 00 00	 DD	 1
  001c0	00 00 00 00	 DD	 $LN6@Construct
  001c4	a8 ff ff ff	 DD	 -88			; ffffffa8H
  001c8	08 00 00 00	 DD	 8
  001cc	00 00 00 00	 DD	 $LN7@Construct
  001d0	9c ff ff ff	 DD	 -100			; ffffff9cH
  001d4	04 00 00 00	 DD	 4
  001d8	00 00 00 00	 DD	 $LN8@Construct
  001dc	90 ff ff ff	 DD	 -112			; ffffff90H
  001e0	04 00 00 00	 DD	 4
  001e4	00 00 00 00	 DD	 $LN9@Construct
$LN9@Construct:
  001e8	5f		 DB	 95			; 0000005fH
  001e9	4e		 DB	 78			; 0000004eH
  001ea	65		 DB	 101			; 00000065H
  001eb	77		 DB	 119			; 00000077H
  001ec	5f		 DB	 95			; 0000005fH
  001ed	70		 DB	 112			; 00000070H
  001ee	74		 DB	 116			; 00000074H
  001ef	72		 DB	 114			; 00000072H
  001f0	00		 DB	 0
$LN8@Construct:
  001f1	5f		 DB	 95			; 0000005fH
  001f2	4e		 DB	 78			; 0000004eH
  001f3	65		 DB	 101			; 00000065H
  001f4	77		 DB	 119			; 00000077H
  001f5	5f		 DB	 95			; 0000005fH
  001f6	63		 DB	 99			; 00000063H
  001f7	61		 DB	 97			; 00000061H
  001f8	70		 DB	 112			; 00000070H
  001f9	61		 DB	 97			; 00000061H
  001fa	63		 DB	 99			; 00000063H
  001fb	69		 DB	 105			; 00000069H
  001fc	74		 DB	 116			; 00000074H
  001fd	79		 DB	 121			; 00000079H
  001fe	00		 DB	 0
$LN7@Construct:
  001ff	5f		 DB	 95			; 0000005fH
  00200	50		 DB	 80			; 00000050H
  00201	72		 DB	 114			; 00000072H
  00202	6f		 DB	 111			; 0000006fH
  00203	78		 DB	 120			; 00000078H
  00204	79		 DB	 121			; 00000079H
  00205	00		 DB	 0
$LN6@Construct:
  00206	24		 DB	 36			; 00000024H
  00207	53		 DB	 83			; 00000053H
  00208	31		 DB	 49			; 00000031H
  00209	31		 DB	 49			; 00000031H
  0020a	00		 DB	 0
_TEXT	ENDS
;	COMDAT text$x
text$x	SEGMENT
__unwindfunclet$??$_Construct@$01PBD@?$basic_string@DU?$char_traits@D@std@@V?$allocator@D@2@@std@@AAEXQBDI@Z$0:
  00000	8d 4d a8	 lea	 ecx, DWORD PTR __Proxy$[ebp]
  00003	e9 00 00 00 00	 jmp	 ??1?$_Container_proxy_ptr12@V?$allocator@U_Container_proxy@std@@@std@@@std@@QAE@XZ ; std::_Container_proxy_ptr12<std::allocator<std::_Container_proxy> >::~_Container_proxy_ptr12<std::allocator<std::_Container_proxy> >
  00008	cc		 int	 3
  00009	cc		 int	 3
  0000a	cc		 int	 3
  0000b	cc		 int	 3
  0000c	cc		 int	 3
__ehhandler$??$_Construct@$01PBD@?$basic_string@DU?$char_traits@D@std@@V?$allocator@D@2@@std@@AAEXQBDI@Z:
  0000d	90		 npad	 1
  0000e	90		 npad	 1
  0000f	8b 54 24 08	 mov	 edx, DWORD PTR [esp+8]
  00013	8d 42 0c	 lea	 eax, DWORD PTR [edx+12]
  00016	8b 8a c8 fe ff
	ff		 mov	 ecx, DWORD PTR [edx-312]
  0001c	33 c8		 xor	 ecx, eax
  0001e	e8 00 00 00 00	 call	 @__security_check_cookie@4
  00023	8b 4a fc	 mov	 ecx, DWORD PTR [edx-4]
  00026	33 c8		 xor	 ecx, eax
  00028	e8 00 00 00 00	 call	 @__security_check_cookie@4
  0002d	b8 00 00 00 00	 mov	 eax, OFFSET __ehfuncinfo$??$_Construct@$01PBD@?$basic_string@DU?$char_traits@D@std@@V?$allocator@D@2@@std@@AAEXQBDI@Z
  00032	e9 00 00 00 00	 jmp	 ___CxxFrameHandler3
text$x	ENDS
??$_Construct@$01PBD@?$basic_string@DU?$char_traits@D@std@@V?$allocator@D@2@@std@@AAEXQBDI@Z ENDP ; std::basic_string<char,std::char_traits<char>,std::allocator<char> >::_Construct<2,char const *>
; Function compile flags: /Odtp /RTCsu /ZI
; File C:\Program Files\Microsoft Visual Studio\2022\Community\VC\Tools\MSVC\14.42.34433\include\xstring
;	COMDAT ??$_Construct@$00PBD@?$basic_string@DU?$char_traits@D@std@@V?$allocator@D@2@@std@@AAEXQBDI@Z
_TEXT	SEGMENT
$T2 = -325						; size = 1
$T3 = -313						; size = 1
__New_ptr$ = -112					; size = 4
__New_capacity$ = -100					; size = 4
__Proxy$ = -88						; size = 8
_$S10$ = -69						; size = 1
__Alproxy$ = -60					; size = 4
__Al$ = -48						; size = 4
__My_data$ = -36					; size = 4
_this$ = -24						; size = 4
__$ArrayPad$ = -16					; size = 4
__$EHRec$ = -12						; size = 12
__Arg$ = 8						; size = 4
__Count$ = 12						; size = 4
??$_Construct@$00PBD@?$basic_string@DU?$char_traits@D@std@@V?$allocator@D@2@@std@@AAEXQBDI@Z PROC ; std::basic_string<char,std::char_traits<char>,std::allocator<char> >::_Construct<1,char const *>, COMDAT
; _this$ = ecx

; 852  :     _CONSTEXPR20 void _Construct(const _Char_or_ptr _Arg, _CRT_GUARDOVERFLOW const size_type _Count) {

  00000	55		 push	 ebp
  00001	8b ec		 mov	 ebp, esp
  00003	6a ff		 push	 -1
  00005	68 00 00 00 00	 push	 __ehhandler$??$_Construct@$00PBD@?$basic_string@DU?$char_traits@D@std@@V?$allocator@D@2@@std@@AAEXQBDI@Z
  0000a	64 a1 00 00 00
	00		 mov	 eax, DWORD PTR fs:0
  00010	50		 push	 eax
  00011	81 ec 40 01 00
	00		 sub	 esp, 320		; 00000140H
  00017	53		 push	 ebx
  00018	56		 push	 esi
  00019	57		 push	 edi
  0001a	51		 push	 ecx
  0001b	8d bd 74 ff ff
	ff		 lea	 edi, DWORD PTR [ebp-140]
  00021	b9 20 00 00 00	 mov	 ecx, 32			; 00000020H
  00026	b8 cc cc cc cc	 mov	 eax, -858993460		; ccccccccH
  0002b	f3 ab		 rep stosd
  0002d	59		 pop	 ecx
  0002e	a1 00 00 00 00	 mov	 eax, DWORD PTR ___security_cookie
  00033	33 c5		 xor	 eax, ebp
  00035	89 45 f0	 mov	 DWORD PTR __$ArrayPad$[ebp], eax
  00038	50		 push	 eax
  00039	8d 45 f4	 lea	 eax, DWORD PTR __$EHRec$[ebp]
  0003c	64 a3 00 00 00
	00		 mov	 DWORD PTR fs:0, eax
  00042	89 4d e8	 mov	 DWORD PTR _this$[ebp], ecx
  00045	b9 00 00 00 00	 mov	 ecx, OFFSET __776EB5C9_xstring
  0004a	e8 00 00 00 00	 call	 @__CheckForDebuggerJustMyCode@4
  0004f	90		 npad	 1

; 853  :         auto& _My_data = _Mypair._Myval2;

  00050	8b 45 e8	 mov	 eax, DWORD PTR _this$[ebp]
  00053	89 45 dc	 mov	 DWORD PTR __My_data$[ebp], eax

; 854  :         _STL_INTERNAL_CHECK(!_My_data._Large_mode_engaged());
; 855  : 
; 856  :         if constexpr (_Strat == _Construct_strategy::_From_char) {
; 857  :             _STL_INTERNAL_STATIC_ASSERT(is_same_v<_Char_or_ptr, _Elem>);
; 858  :         } else {
; 859  :             _STL_INTERNAL_STATIC_ASSERT(_Is_elem_cptr<_Char_or_ptr>::value);
; 860  :         }
; 861  : 
; 862  :         if (_Count > max_size()) {

  00056	8b 4d e8	 mov	 ecx, DWORD PTR _this$[ebp]
  00059	e8 00 00 00 00	 call	 ?max_size@?$basic_string@DU?$char_traits@D@std@@V?$allocator@D@2@@std@@QBEIXZ ; std::basic_string<char,std::char_traits<char>,std::allocator<char> >::max_size
  0005e	39 45 0c	 cmp	 DWORD PTR __Count$[ebp], eax
  00061	76 06		 jbe	 SHORT $LN2@Construct

; 863  :             _Xlen_string(); // result too long

  00063	e8 00 00 00 00	 call	 ?_Xlen_string@std@@YAXXZ ; std::_Xlen_string
  00068	90		 npad	 1
$LN2@Construct:

; 864  :         }
; 865  : 
; 866  :         auto& _Al       = _Getal();

  00069	8b 4d e8	 mov	 ecx, DWORD PTR _this$[ebp]
  0006c	e8 00 00 00 00	 call	 ?_Getal@?$basic_string@DU?$char_traits@D@std@@V?$allocator@D@2@@std@@AAEAAV?$allocator@D@2@XZ ; std::basic_string<char,std::char_traits<char>,std::allocator<char> >::_Getal
  00071	89 45 d0	 mov	 DWORD PTR __Al$[ebp], eax

; 867  :         auto&& _Alproxy = _GET_PROXY_ALLOCATOR(_Alty, _Al);

  00074	8b 45 d0	 mov	 eax, DWORD PTR __Al$[ebp]
  00077	50		 push	 eax
  00078	8d 4d bb	 lea	 ecx, DWORD PTR _$S10$[ebp]
  0007b	e8 00 00 00 00	 call	 ??$?0D@?$allocator@U_Container_proxy@std@@@std@@QAE@ABV?$allocator@D@1@@Z ; std::allocator<std::_Container_proxy>::allocator<std::_Container_proxy><char>
  00080	8d 4d bb	 lea	 ecx, DWORD PTR _$S10$[ebp]
  00083	89 4d c4	 mov	 DWORD PTR __Alproxy$[ebp], ecx

; 868  :         _Container_proxy_ptr<_Alty> _Proxy(_Alproxy, _My_data);

  00086	8b 45 dc	 mov	 eax, DWORD PTR __My_data$[ebp]
  00089	50		 push	 eax
  0008a	8b 4d c4	 mov	 ecx, DWORD PTR __Alproxy$[ebp]
  0008d	51		 push	 ecx
  0008e	8d 4d a8	 lea	 ecx, DWORD PTR __Proxy$[ebp]
  00091	e8 00 00 00 00	 call	 ??0?$_Container_proxy_ptr12@V?$allocator@U_Container_proxy@std@@@std@@@std@@QAE@AAV?$allocator@U_Container_proxy@std@@@1@AAU_Container_base12@1@@Z ; std::_Container_proxy_ptr12<std::allocator<std::_Container_proxy> >::_Container_proxy_ptr12<std::allocator<std::_Container_proxy> >
  00096	c7 45 fc 00 00
	00 00		 mov	 DWORD PTR __$EHRec$[ebp+8], 0

; 869  : 
; 870  :         if (_Count <= _Small_string_capacity) {

  0009d	83 7d 0c 0f	 cmp	 DWORD PTR __Count$[ebp], 15 ; 0000000fH
  000a1	77 69		 ja	 SHORT $LN3@Construct

; 871  :             _My_data._Mysize = _Count;

  000a3	8b 45 dc	 mov	 eax, DWORD PTR __My_data$[ebp]
  000a6	8b 4d 0c	 mov	 ecx, DWORD PTR __Count$[ebp]
  000a9	89 48 14	 mov	 DWORD PTR [eax+20], ecx

; 872  :             _My_data._Myres  = _Small_string_capacity;

  000ac	8b 45 dc	 mov	 eax, DWORD PTR __My_data$[ebp]
  000af	c7 40 18 0f 00
	00 00		 mov	 DWORD PTR [eax+24], 15	; 0000000fH

; 873  : 
; 874  :             if constexpr (_Strat == _Construct_strategy::_From_char) {
; 875  :                 _Traits::assign(_My_data._Bx._Buf, _Count, _Arg);
; 876  :                 _Traits::assign(_My_data._Bx._Buf[_Count], _Elem());
; 877  :             } else if constexpr (_Strat == _Construct_strategy::_From_ptr) {
; 878  :                 _Traits::copy(_My_data._Bx._Buf, _Arg, _Count);

  000b6	8b 45 0c	 mov	 eax, DWORD PTR __Count$[ebp]
  000b9	50		 push	 eax
  000ba	8b 4d 08	 mov	 ecx, DWORD PTR __Arg$[ebp]
  000bd	51		 push	 ecx
  000be	8b 55 dc	 mov	 edx, DWORD PTR __My_data$[ebp]
  000c1	83 c2 04	 add	 edx, 4
  000c4	52		 push	 edx
  000c5	e8 00 00 00 00	 call	 ?copy@?$_Char_traits@DH@std@@SAPADQADQBDI@Z ; std::_Char_traits<char,int>::copy
  000ca	83 c4 0c	 add	 esp, 12			; 0000000cH

; 879  :                 _Traits::assign(_My_data._Bx._Buf[_Count], _Elem());

  000cd	c6 85 c7 fe ff
	ff 00		 mov	 BYTE PTR $T3[ebp], 0
  000d4	8d 85 c7 fe ff
	ff		 lea	 eax, DWORD PTR $T3[ebp]
  000da	50		 push	 eax
  000db	8b 4d 0c	 mov	 ecx, DWORD PTR __Count$[ebp]
  000de	8b 55 dc	 mov	 edx, DWORD PTR __My_data$[ebp]
  000e1	8d 44 0a 04	 lea	 eax, DWORD PTR [edx+ecx+4]
  000e5	50		 push	 eax
  000e6	e8 00 00 00 00	 call	 ?assign@?$_Narrow_char_traits@DH@std@@SAXAADABD@Z ; std::_Narrow_char_traits<char,int>::assign
  000eb	83 c4 08	 add	 esp, 8

; 880  :             } else { // _Strat == _Construct_strategy::_From_string
; 881  : #ifdef _INSERT_STRING_ANNOTATION
; 882  :                 _Traits::copy(_My_data._Bx._Buf, _Arg, _Count + 1);
; 883  : #else // ^^^ _INSERT_STRING_ANNOTATION / !_INSERT_STRING_ANNOTATION vvv
; 884  :                 _Traits::copy(_My_data._Bx._Buf, _Arg, _BUF_SIZE);
; 885  : #endif // ^^^ !_INSERT_STRING_ANNOTATION ^^^
; 886  :             }
; 887  : 
; 888  :             _Proxy._Release();

  000ee	8d 4d a8	 lea	 ecx, DWORD PTR __Proxy$[ebp]
  000f1	e8 00 00 00 00	 call	 ?_Release@_Basic_container_proxy_ptr12@std@@QAEXXZ ; std::_Basic_container_proxy_ptr12::_Release
  000f6	90		 npad	 1

; 889  :             return;

  000f7	c7 45 fc ff ff
	ff ff		 mov	 DWORD PTR __$EHRec$[ebp+8], -1
  000fe	8d 4d a8	 lea	 ecx, DWORD PTR __Proxy$[ebp]
  00101	e8 00 00 00 00	 call	 ??1?$_Container_proxy_ptr12@V?$allocator@U_Container_proxy@std@@@std@@@std@@QAE@XZ ; std::_Container_proxy_ptr12<std::allocator<std::_Container_proxy> >::~_Container_proxy_ptr12<std::allocator<std::_Container_proxy> >
  00106	90		 npad	 1
  00107	e9 ae 00 00 00	 jmp	 $LN1@Construct
$LN3@Construct:

; 890  :         }
; 891  : 
; 892  :         size_type _New_capacity = _Calculate_growth(_Count, _Small_string_capacity, max_size());

  0010c	8b 4d e8	 mov	 ecx, DWORD PTR _this$[ebp]
  0010f	e8 00 00 00 00	 call	 ?max_size@?$basic_string@DU?$char_traits@D@std@@V?$allocator@D@2@@std@@QBEIXZ ; std::basic_string<char,std::char_traits<char>,std::allocator<char> >::max_size
  00114	50		 push	 eax
  00115	6a 0f		 push	 15			; 0000000fH
  00117	8b 45 0c	 mov	 eax, DWORD PTR __Count$[ebp]
  0011a	50		 push	 eax
  0011b	e8 00 00 00 00	 call	 ?_Calculate_growth@?$basic_string@DU?$char_traits@D@std@@V?$allocator@D@2@@std@@CAIIII@Z ; std::basic_string<char,std::char_traits<char>,std::allocator<char> >::_Calculate_growth
  00120	83 c4 0c	 add	 esp, 12			; 0000000cH
  00123	89 45 9c	 mov	 DWORD PTR __New_capacity$[ebp], eax

; 893  :         const pointer _New_ptr  = _Allocate_for_capacity(_Al, _New_capacity); // throws

  00126	8d 45 9c	 lea	 eax, DWORD PTR __New_capacity$[ebp]
  00129	50		 push	 eax
  0012a	8b 4d d0	 mov	 ecx, DWORD PTR __Al$[ebp]
  0012d	51		 push	 ecx
  0012e	e8 00 00 00 00	 call	 ??$_Allocate_for_capacity@$0A@@?$basic_string@DU?$char_traits@D@std@@V?$allocator@D@2@@std@@CAPADAAV?$allocator@D@1@AAI@Z ; std::basic_string<char,std::char_traits<char>,std::allocator<char> >::_Allocate_for_capacity<0>
  00133	83 c4 08	 add	 esp, 8
  00136	89 45 90	 mov	 DWORD PTR __New_ptr$[ebp], eax

; 894  :         _Construct_in_place(_My_data._Bx._Ptr, _New_ptr);

  00139	8d 45 90	 lea	 eax, DWORD PTR __New_ptr$[ebp]
  0013c	50		 push	 eax
  0013d	8b 4d dc	 mov	 ecx, DWORD PTR __My_data$[ebp]
  00140	83 c1 04	 add	 ecx, 4
  00143	51		 push	 ecx
  00144	e8 00 00 00 00	 call	 ??$_Construct_in_place@PADABQAD@std@@YAXAAPADABQAD@Z ; std::_Construct_in_place<char *,char * const &>
  00149	83 c4 08	 add	 esp, 8

; 895  : 
; 896  :         _My_data._Mysize = _Count;

  0014c	8b 45 dc	 mov	 eax, DWORD PTR __My_data$[ebp]
  0014f	8b 4d 0c	 mov	 ecx, DWORD PTR __Count$[ebp]
  00152	89 48 14	 mov	 DWORD PTR [eax+20], ecx

; 897  :         _My_data._Myres  = _New_capacity;

  00155	8b 45 dc	 mov	 eax, DWORD PTR __My_data$[ebp]
  00158	8b 4d 9c	 mov	 ecx, DWORD PTR __New_capacity$[ebp]
  0015b	89 48 18	 mov	 DWORD PTR [eax+24], ecx

; 898  :         if constexpr (_Strat == _Construct_strategy::_From_char) {
; 899  :             _Traits::assign(_Unfancy(_New_ptr), _Count, _Arg);
; 900  :             _Traits::assign(_Unfancy(_New_ptr)[_Count], _Elem());
; 901  :         } else if constexpr (_Strat == _Construct_strategy::_From_ptr) {
; 902  :             _Traits::copy(_Unfancy(_New_ptr), _Arg, _Count);

  0015e	8b 45 0c	 mov	 eax, DWORD PTR __Count$[ebp]
  00161	50		 push	 eax
  00162	8b 4d 08	 mov	 ecx, DWORD PTR __Arg$[ebp]
  00165	51		 push	 ecx
  00166	8b 55 90	 mov	 edx, DWORD PTR __New_ptr$[ebp]
  00169	52		 push	 edx
  0016a	e8 00 00 00 00	 call	 ??$_Unfancy@D@std@@YAPADPAD@Z ; std::_Unfancy<char>
  0016f	83 c4 04	 add	 esp, 4
  00172	50		 push	 eax
  00173	e8 00 00 00 00	 call	 ?copy@?$_Char_traits@DH@std@@SAPADQADQBDI@Z ; std::_Char_traits<char,int>::copy
  00178	83 c4 0c	 add	 esp, 12			; 0000000cH

; 903  :             _Traits::assign(_Unfancy(_New_ptr)[_Count], _Elem());

  0017b	c6 85 bb fe ff
	ff 00		 mov	 BYTE PTR $T2[ebp], 0
  00182	8d 85 bb fe ff
	ff		 lea	 eax, DWORD PTR $T2[ebp]
  00188	50		 push	 eax
  00189	8b 4d 90	 mov	 ecx, DWORD PTR __New_ptr$[ebp]
  0018c	51		 push	 ecx
  0018d	e8 00 00 00 00	 call	 ??$_Unfancy@D@std@@YAPADPAD@Z ; std::_Unfancy<char>
  00192	83 c4 04	 add	 esp, 4
  00195	03 45 0c	 add	 eax, DWORD PTR __Count$[ebp]
  00198	50		 push	 eax
  00199	e8 00 00 00 00	 call	 ?assign@?$_Narrow_char_traits@DH@std@@SAXAADABD@Z ; std::_Narrow_char_traits<char,int>::assign
  0019e	83 c4 08	 add	 esp, 8

; 904  :         } else { // _Strat == _Construct_strategy::_From_string
; 905  :             _Traits::copy(_Unfancy(_New_ptr), _Arg, _Count + 1);
; 906  :         }
; 907  : 
; 908  :         _ASAN_STRING_CREATE(*this);
; 909  :         _Proxy._Release();

  001a1	8d 4d a8	 lea	 ecx, DWORD PTR __Proxy$[ebp]
  001a4	e8 00 00 00 00	 call	 ?_Release@_Basic_container_proxy_ptr12@std@@QAEXXZ ; std::_Basic_container_proxy_ptr12::_Release
  001a9	90		 npad	 1

; 910  :     }

  001aa	c7 45 fc ff ff
	ff ff		 mov	 DWORD PTR __$EHRec$[ebp+8], -1
  001b1	8d 4d a8	 lea	 ecx, DWORD PTR __Proxy$[ebp]
  001b4	e8 00 00 00 00	 call	 ??1?$_Container_proxy_ptr12@V?$allocator@U_Container_proxy@std@@@std@@@std@@QAE@XZ ; std::_Container_proxy_ptr12<std::allocator<std::_Container_proxy> >::~_Container_proxy_ptr12<std::allocator<std::_Container_proxy> >
  001b9	90		 npad	 1
$LN1@Construct:
  001ba	52		 push	 edx
  001bb	8b cd		 mov	 ecx, ebp
  001bd	50		 push	 eax
  001be	8d 15 00 00 00
	00		 lea	 edx, DWORD PTR $LN12@Construct
  001c4	e8 00 00 00 00	 call	 @_RTC_CheckStackVars@8
  001c9	58		 pop	 eax
  001ca	5a		 pop	 edx
  001cb	8b 4d f4	 mov	 ecx, DWORD PTR __$EHRec$[ebp]
  001ce	64 89 0d 00 00
	00 00		 mov	 DWORD PTR fs:0, ecx
  001d5	59		 pop	 ecx
  001d6	5f		 pop	 edi
  001d7	5e		 pop	 esi
  001d8	5b		 pop	 ebx
  001d9	8b 4d f0	 mov	 ecx, DWORD PTR __$ArrayPad$[ebp]
  001dc	33 cd		 xor	 ecx, ebp
  001de	e8 00 00 00 00	 call	 @__security_check_cookie@4
  001e3	81 c4 4c 01 00
	00		 add	 esp, 332		; 0000014cH
  001e9	3b ec		 cmp	 ebp, esp
  001eb	e8 00 00 00 00	 call	 __RTC_CheckEsp
  001f0	8b e5		 mov	 esp, ebp
  001f2	5d		 pop	 ebp
  001f3	c2 08 00	 ret	 8
  001f6	66 90		 npad	 2
$LN12@Construct:
  001f8	04 00 00 00	 DD	 4
  001fc	00 00 00 00	 DD	 $LN11@Construct
$LN11@Construct:
  00200	bb ff ff ff	 DD	 -69			; ffffffbbH
  00204	01 00 00 00	 DD	 1
  00208	00 00 00 00	 DD	 $LN6@Construct
  0020c	a8 ff ff ff	 DD	 -88			; ffffffa8H
  00210	08 00 00 00	 DD	 8
  00214	00 00 00 00	 DD	 $LN7@Construct
  00218	9c ff ff ff	 DD	 -100			; ffffff9cH
  0021c	04 00 00 00	 DD	 4
  00220	00 00 00 00	 DD	 $LN8@Construct
  00224	90 ff ff ff	 DD	 -112			; ffffff90H
  00228	04 00 00 00	 DD	 4
  0022c	00 00 00 00	 DD	 $LN9@Construct
$LN9@Construct:
  00230	5f		 DB	 95			; 0000005fH
  00231	4e		 DB	 78			; 0000004eH
  00232	65		 DB	 101			; 00000065H
  00233	77		 DB	 119			; 00000077H
  00234	5f		 DB	 95			; 0000005fH
  00235	70		 DB	 112			; 00000070H
  00236	74		 DB	 116			; 00000074H
  00237	72		 DB	 114			; 00000072H
  00238	00		 DB	 0
$LN8@Construct:
  00239	5f		 DB	 95			; 0000005fH
  0023a	4e		 DB	 78			; 0000004eH
  0023b	65		 DB	 101			; 00000065H
  0023c	77		 DB	 119			; 00000077H
  0023d	5f		 DB	 95			; 0000005fH
  0023e	63		 DB	 99			; 00000063H
  0023f	61		 DB	 97			; 00000061H
  00240	70		 DB	 112			; 00000070H
  00241	61		 DB	 97			; 00000061H
  00242	63		 DB	 99			; 00000063H
  00243	69		 DB	 105			; 00000069H
  00244	74		 DB	 116			; 00000074H
  00245	79		 DB	 121			; 00000079H
  00246	00		 DB	 0
$LN7@Construct:
  00247	5f		 DB	 95			; 0000005fH
  00248	50		 DB	 80			; 00000050H
  00249	72		 DB	 114			; 00000072H
  0024a	6f		 DB	 111			; 0000006fH
  0024b	78		 DB	 120			; 00000078H
  0024c	79		 DB	 121			; 00000079H
  0024d	00		 DB	 0
$LN6@Construct:
  0024e	24		 DB	 36			; 00000024H
  0024f	53		 DB	 83			; 00000053H
  00250	31		 DB	 49			; 00000031H
  00251	30		 DB	 48			; 00000030H
  00252	00		 DB	 0
_TEXT	ENDS
;	COMDAT text$x
text$x	SEGMENT
__unwindfunclet$??$_Construct@$00PBD@?$basic_string@DU?$char_traits@D@std@@V?$allocator@D@2@@std@@AAEXQBDI@Z$0:
  00000	8d 4d a8	 lea	 ecx, DWORD PTR __Proxy$[ebp]
  00003	e9 00 00 00 00	 jmp	 ??1?$_Container_proxy_ptr12@V?$allocator@U_Container_proxy@std@@@std@@@std@@QAE@XZ ; std::_Container_proxy_ptr12<std::allocator<std::_Container_proxy> >::~_Container_proxy_ptr12<std::allocator<std::_Container_proxy> >
  00008	cc		 int	 3
  00009	cc		 int	 3
  0000a	cc		 int	 3
  0000b	cc		 int	 3
  0000c	cc		 int	 3
__ehhandler$??$_Construct@$00PBD@?$basic_string@DU?$char_traits@D@std@@V?$allocator@D@2@@std@@AAEXQBDI@Z:
  0000d	90		 npad	 1
  0000e	90		 npad	 1
  0000f	8b 54 24 08	 mov	 edx, DWORD PTR [esp+8]
  00013	8d 42 0c	 lea	 eax, DWORD PTR [edx+12]
  00016	8b 8a b0 fe ff
	ff		 mov	 ecx, DWORD PTR [edx-336]
  0001c	33 c8		 xor	 ecx, eax
  0001e	e8 00 00 00 00	 call	 @__security_check_cookie@4
  00023	8b 4a fc	 mov	 ecx, DWORD PTR [edx-4]
  00026	33 c8		 xor	 ecx, eax
  00028	e8 00 00 00 00	 call	 @__security_check_cookie@4
  0002d	b8 00 00 00 00	 mov	 eax, OFFSET __ehfuncinfo$??$_Construct@$00PBD@?$basic_string@DU?$char_traits@D@std@@V?$allocator@D@2@@std@@AAEXQBDI@Z
  00032	e9 00 00 00 00	 jmp	 ___CxxFrameHandler3
text$x	ENDS
??$_Construct@$00PBD@?$basic_string@DU?$char_traits@D@std@@V?$allocator@D@2@@std@@AAEXQBDI@Z ENDP ; std::basic_string<char,std::char_traits<char>,std::allocator<char> >::_Construct<1,char const *>
; Function compile flags: /Odtp /RTCsu /ZI
; File C:\Program Files\Microsoft Visual Studio\2022\Community\VC\Tools\MSVC\14.42.34433\include\xmemory
;	COMDAT ??$?0$$V@?$_Compressed_pair@V?$allocator@D@std@@V?$_String_val@U?$_Simple_types@D@std@@@2@$00@std@@QAE@U_Zero_then_variadic_args_t@1@@Z
_TEXT	SEGMENT
_this$ = -8						; size = 4
___formal$ = 8						; size = 1
??$?0$$V@?$_Compressed_pair@V?$allocator@D@std@@V?$_String_val@U?$_Simple_types@D@std@@@2@$00@std@@QAE@U_Zero_then_variadic_args_t@1@@Z PROC ; std::_Compressed_pair<std::allocator<char>,std::_String_val<std::_Simple_types<char> >,1>::_Compressed_pair<std::allocator<char>,std::_String_val<std::_Simple_types<char> >,1><>, COMDAT
; _this$ = ecx

; 1495 :         : _Ty1(), _Myval2(_STD forward<_Other2>(_Val2)...) {}

  00000	55		 push	 ebp
  00001	8b ec		 mov	 ebp, esp
  00003	81 ec cc 00 00
	00		 sub	 esp, 204		; 000000ccH
  00009	53		 push	 ebx
  0000a	56		 push	 esi
  0000b	57		 push	 edi
  0000c	51		 push	 ecx
  0000d	8d 7d f4	 lea	 edi, DWORD PTR [ebp-12]
  00010	b9 03 00 00 00	 mov	 ecx, 3
  00015	b8 cc cc cc cc	 mov	 eax, -858993460		; ccccccccH
  0001a	f3 ab		 rep stosd
  0001c	59		 pop	 ecx
  0001d	89 4d f8	 mov	 DWORD PTR _this$[ebp], ecx
  00020	b9 00 00 00 00	 mov	 ecx, OFFSET __03BD3355_xmemory
  00025	e8 00 00 00 00	 call	 @__CheckForDebuggerJustMyCode@4
  0002a	90		 npad	 1
  0002b	8b 4d f8	 mov	 ecx, DWORD PTR _this$[ebp]
  0002e	e8 00 00 00 00	 call	 ??0?$allocator@D@std@@QAE@XZ ; std::allocator<char>::allocator<char>
  00033	90		 npad	 1
  00034	8b 4d f8	 mov	 ecx, DWORD PTR _this$[ebp]
  00037	e8 00 00 00 00	 call	 ??0?$_String_val@U?$_Simple_types@D@std@@@std@@QAE@XZ ; std::_String_val<std::_Simple_types<char> >::_String_val<std::_Simple_types<char> >
  0003c	90		 npad	 1
  0003d	8b 45 f8	 mov	 eax, DWORD PTR _this$[ebp]
  00040	5f		 pop	 edi
  00041	5e		 pop	 esi
  00042	5b		 pop	 ebx
  00043	81 c4 cc 00 00
	00		 add	 esp, 204		; 000000ccH
  00049	3b ec		 cmp	 ebp, esp
  0004b	e8 00 00 00 00	 call	 __RTC_CheckEsp
  00050	8b e5		 mov	 esp, ebp
  00052	5d		 pop	 ebp
  00053	c2 04 00	 ret	 4
??$?0$$V@?$_Compressed_pair@V?$allocator@D@std@@V?$_String_val@U?$_Simple_types@D@std@@@2@$00@std@@QAE@U_Zero_then_variadic_args_t@1@@Z ENDP ; std::_Compressed_pair<std::allocator<char>,std::_String_val<std::_Simple_types<char> >,1>::_Compressed_pair<std::allocator<char>,std::_String_val<std::_Simple_types<char> >,1><>
_TEXT	ENDS
; Function compile flags: /Odtp /RTCsu /ZI
; File C:\Program Files\Microsoft Visual Studio\2022\Community\VC\Tools\MSVC\14.42.34433\include\xmemory
;	COMDAT ??$?0V?$allocator@D@std@@$$V@?$_Compressed_pair@V?$allocator@D@std@@V?$_String_val@U?$_Simple_types@D@std@@@2@$00@std@@QAE@U_One_then_variadic_args_t@1@$$QAV?$allocator@D@1@@Z
_TEXT	SEGMENT
_this$ = -8						; size = 4
___formal$ = 8						; size = 1
__Val1$ = 12						; size = 4
??$?0V?$allocator@D@std@@$$V@?$_Compressed_pair@V?$allocator@D@std@@V?$_String_val@U?$_Simple_types@D@std@@@2@$00@std@@QAE@U_One_then_variadic_args_t@1@$$QAV?$allocator@D@1@@Z PROC ; std::_Compressed_pair<std::allocator<char>,std::_String_val<std::_Simple_types<char> >,1>::_Compressed_pair<std::allocator<char>,std::_String_val<std::_Simple_types<char> >,1><std::allocator<char> >, COMDAT
; _this$ = ecx

; 1500 :         : _Ty1(_STD forward<_Other1>(_Val1)), _Myval2(_STD forward<_Other2>(_Val2)...) {}

  00000	55		 push	 ebp
  00001	8b ec		 mov	 ebp, esp
  00003	81 ec cc 00 00
	00		 sub	 esp, 204		; 000000ccH
  00009	53		 push	 ebx
  0000a	56		 push	 esi
  0000b	57		 push	 edi
  0000c	51		 push	 ecx
  0000d	8d 7d f4	 lea	 edi, DWORD PTR [ebp-12]
  00010	b9 03 00 00 00	 mov	 ecx, 3
  00015	b8 cc cc cc cc	 mov	 eax, -858993460		; ccccccccH
  0001a	f3 ab		 rep stosd
  0001c	59		 pop	 ecx
  0001d	89 4d f8	 mov	 DWORD PTR _this$[ebp], ecx
  00020	b9 00 00 00 00	 mov	 ecx, OFFSET __03BD3355_xmemory
  00025	e8 00 00 00 00	 call	 @__CheckForDebuggerJustMyCode@4
  0002a	90		 npad	 1
  0002b	8b 4d f8	 mov	 ecx, DWORD PTR _this$[ebp]
  0002e	e8 00 00 00 00	 call	 ??0?$_String_val@U?$_Simple_types@D@std@@@std@@QAE@XZ ; std::_String_val<std::_Simple_types<char> >::_String_val<std::_Simple_types<char> >
  00033	90		 npad	 1
  00034	8b 45 f8	 mov	 eax, DWORD PTR _this$[ebp]
  00037	5f		 pop	 edi
  00038	5e		 pop	 esi
  00039	5b		 pop	 ebx
  0003a	81 c4 cc 00 00
	00		 add	 esp, 204		; 000000ccH
  00040	3b ec		 cmp	 ebp, esp
  00042	e8 00 00 00 00	 call	 __RTC_CheckEsp
  00047	8b e5		 mov	 esp, ebp
  00049	5d		 pop	 ebp
  0004a	c2 08 00	 ret	 8
??$?0V?$allocator@D@std@@$$V@?$_Compressed_pair@V?$allocator@D@std@@V?$_String_val@U?$_Simple_types@D@std@@@2@$00@std@@QAE@U_One_then_variadic_args_t@1@$$QAV?$allocator@D@1@@Z ENDP ; std::_Compressed_pair<std::allocator<char>,std::_String_val<std::_Simple_types<char> >,1>::_Compressed_pair<std::allocator<char>,std::_String_val<std::_Simple_types<char> >,1><std::allocator<char> >
_TEXT	ENDS
; Function compile flags: /Odtp /RTCsu /ZI
; File C:\Program Files\Microsoft Visual Studio\2022\Community\VC\Tools\MSVC\14.42.34433\include\xmemory
;	COMDAT ??$?0D@?$allocator@U_Container_proxy@std@@@std@@QAE@ABV?$allocator@D@1@@Z
_TEXT	SEGMENT
_this$ = -8						; size = 4
___formal$ = 8						; size = 4
??$?0D@?$allocator@U_Container_proxy@std@@@std@@QAE@ABV?$allocator@D@1@@Z PROC ; std::allocator<std::_Container_proxy>::allocator<std::_Container_proxy><char>, COMDAT
; _this$ = ecx

; 942  :     constexpr allocator(const allocator<_Other>&) noexcept {}

  00000	55		 push	 ebp
  00001	8b ec		 mov	 ebp, esp
  00003	81 ec cc 00 00
	00		 sub	 esp, 204		; 000000ccH
  00009	53		 push	 ebx
  0000a	56		 push	 esi
  0000b	57		 push	 edi
  0000c	51		 push	 ecx
  0000d	8d 7d f4	 lea	 edi, DWORD PTR [ebp-12]
  00010	b9 03 00 00 00	 mov	 ecx, 3
  00015	b8 cc cc cc cc	 mov	 eax, -858993460		; ccccccccH
  0001a	f3 ab		 rep stosd
  0001c	59		 pop	 ecx
  0001d	89 4d f8	 mov	 DWORD PTR _this$[ebp], ecx
  00020	b9 00 00 00 00	 mov	 ecx, OFFSET __03BD3355_xmemory
  00025	e8 00 00 00 00	 call	 @__CheckForDebuggerJustMyCode@4
  0002a	90		 npad	 1
  0002b	8b 45 f8	 mov	 eax, DWORD PTR _this$[ebp]
  0002e	5f		 pop	 edi
  0002f	5e		 pop	 esi
  00030	5b		 pop	 ebx
  00031	81 c4 cc 00 00
	00		 add	 esp, 204		; 000000ccH
  00037	3b ec		 cmp	 ebp, esp
  00039	e8 00 00 00 00	 call	 __RTC_CheckEsp
  0003e	8b e5		 mov	 esp, ebp
  00040	5d		 pop	 ebp
  00041	c2 04 00	 ret	 4
??$?0D@?$allocator@U_Container_proxy@std@@@std@@QAE@ABV?$allocator@D@1@@Z ENDP ; std::allocator<std::_Container_proxy>::allocator<std::_Container_proxy><char>
_TEXT	ENDS
; Function compile flags: /Odtp /RTCsu /ZI
; File C:\Program Files\Microsoft Visual Studio\2022\Community\VC\Tools\MSVC\14.42.34433\include\xmemory
;	COMDAT ??$_Convert_size@II@std@@YAII@Z
_TEXT	SEGMENT
__Len$ = 8						; size = 4
??$_Convert_size@II@std@@YAII@Z PROC			; std::_Convert_size<unsigned int,unsigned int>, COMDAT

; 1084 :     sizeof(_Unsigned_type) <= sizeof(_Size_type)) {

  00000	55		 push	 ebp
  00001	8b ec		 mov	 ebp, esp
  00003	81 ec c0 00 00
	00		 sub	 esp, 192		; 000000c0H
  00009	53		 push	 ebx
  0000a	56		 push	 esi
  0000b	57		 push	 edi
  0000c	8b fd		 mov	 edi, ebp
  0000e	33 c9		 xor	 ecx, ecx
  00010	b8 cc cc cc cc	 mov	 eax, -858993460		; ccccccccH
  00015	f3 ab		 rep stosd
  00017	b9 00 00 00 00	 mov	 ecx, OFFSET __03BD3355_xmemory
  0001c	e8 00 00 00 00	 call	 @__CheckForDebuggerJustMyCode@4
  00021	90		 npad	 1

; 1085 :     // convert _Unsigned_type to _Size_type, avoiding truncation
; 1086 :     _STL_INTERNAL_STATIC_ASSERT(_Unsigned_type(-1) > 0);
; 1087 :     _STL_INTERNAL_STATIC_ASSERT(_Size_type(-1) > 0);
; 1088 : 
; 1089 :     if constexpr (sizeof(_Unsigned_type) > sizeof(_Size_type)) {
; 1090 :         if (_Len > _STD _Max_limit<_Size_type>()) {
; 1091 :             _Xlength_error("size is too long for _Size_type");
; 1092 :         }
; 1093 :     }
; 1094 : 
; 1095 :     return static_cast<_Size_type>(_Len);

  00022	8b 45 08	 mov	 eax, DWORD PTR __Len$[ebp]

; 1096 : }

  00025	5f		 pop	 edi
  00026	5e		 pop	 esi
  00027	5b		 pop	 ebx
  00028	81 c4 c0 00 00
	00		 add	 esp, 192		; 000000c0H
  0002e	3b ec		 cmp	 ebp, esp
  00030	e8 00 00 00 00	 call	 __RTC_CheckEsp
  00035	8b e5		 mov	 esp, ebp
  00037	5d		 pop	 ebp
  00038	c3		 ret	 0
??$_Convert_size@II@std@@YAII@Z ENDP			; std::_Convert_size<unsigned int,unsigned int>
_TEXT	ENDS
; Function compile flags: /Odtp /RTCsu /ZI
; File C:\Program Files\Microsoft Visual Studio\2022\Community\VC\Tools\MSVC\14.42.34433\include\xmemory
;	COMDAT ??$_Delete_plain_internal@V?$allocator@U_Container_proxy@std@@@std@@@std@@YAXAAV?$allocator@U_Container_proxy@std@@@0@QAU_Container_proxy@0@@Z
_TEXT	SEGMENT
__Al$ = 8						; size = 4
__Ptr$ = 12						; size = 4
??$_Delete_plain_internal@V?$allocator@U_Container_proxy@std@@@std@@@std@@YAXAAV?$allocator@U_Container_proxy@std@@@0@QAU_Container_proxy@0@@Z PROC ; std::_Delete_plain_internal<std::allocator<std::_Container_proxy> >, COMDAT

; 1111 : _CONSTEXPR20 void _Delete_plain_internal(_Alloc& _Al, typename _Alloc::value_type* const _Ptr) noexcept {

  00000	55		 push	 ebp
  00001	8b ec		 mov	 ebp, esp
  00003	81 ec c0 00 00
	00		 sub	 esp, 192		; 000000c0H
  00009	53		 push	 ebx
  0000a	56		 push	 esi
  0000b	57		 push	 edi
  0000c	8b fd		 mov	 edi, ebp
  0000e	33 c9		 xor	 ecx, ecx
  00010	b8 cc cc cc cc	 mov	 eax, -858993460		; ccccccccH
  00015	f3 ab		 rep stosd
  00017	b9 00 00 00 00	 mov	 ecx, OFFSET __03BD3355_xmemory
  0001c	e8 00 00 00 00	 call	 @__CheckForDebuggerJustMyCode@4
  00021	90		 npad	 1

; 1112 :     // destroy *_Ptr in place, then deallocate _Ptr using _Al; used for internal container types the user didn't name
; 1113 :     using _Ty = typename _Alloc::value_type;
; 1114 :     _Ptr->~_Ty();
; 1115 :     _STD _Deallocate_plain(_Al, _Ptr);

  00022	8b 45 0c	 mov	 eax, DWORD PTR __Ptr$[ebp]
  00025	50		 push	 eax
  00026	8b 4d 08	 mov	 ecx, DWORD PTR __Al$[ebp]
  00029	51		 push	 ecx
  0002a	e8 00 00 00 00	 call	 ??$_Deallocate_plain@V?$allocator@U_Container_proxy@std@@@std@@@std@@YAXAAV?$allocator@U_Container_proxy@std@@@0@QAU_Container_proxy@0@@Z ; std::_Deallocate_plain<std::allocator<std::_Container_proxy> >
  0002f	83 c4 08	 add	 esp, 8

; 1116 : }

  00032	5f		 pop	 edi
  00033	5e		 pop	 esi
  00034	5b		 pop	 ebx
  00035	81 c4 c0 00 00
	00		 add	 esp, 192		; 000000c0H
  0003b	3b ec		 cmp	 ebp, esp
  0003d	e8 00 00 00 00	 call	 __RTC_CheckEsp
  00042	8b e5		 mov	 esp, ebp
  00044	5d		 pop	 ebp
  00045	c3		 ret	 0
??$_Delete_plain_internal@V?$allocator@U_Container_proxy@std@@@std@@@std@@YAXAAV?$allocator@U_Container_proxy@std@@@0@QAU_Container_proxy@0@@Z ENDP ; std::_Delete_plain_internal<std::allocator<std::_Container_proxy> >
_TEXT	ENDS
; Function compile flags: /Odtp /RTCsu /ZI
; File C:\Program Files\Microsoft Visual Studio\2022\Community\VC\Tools\MSVC\14.42.34433\include\xmemory
;	COMDAT ?allocate@?$allocator@U_Container_proxy@std@@@std@@QAEPAU_Container_proxy@2@I@Z
_TEXT	SEGMENT
_this$ = -8						; size = 4
__Count$ = 8						; size = 4
?allocate@?$allocator@U_Container_proxy@std@@@std@@QAEPAU_Container_proxy@2@I@Z PROC ; std::allocator<std::_Container_proxy>::allocate, COMDAT
; _this$ = ecx

; 952  :     _NODISCARD_RAW_PTR_ALLOC _CONSTEXPR20 __declspec(allocator) _Ty* allocate(_CRT_GUARDOVERFLOW const size_t _Count) {

  00000	55		 push	 ebp
  00001	8b ec		 mov	 ebp, esp
  00003	81 ec cc 00 00
	00		 sub	 esp, 204		; 000000ccH
  00009	53		 push	 ebx
  0000a	56		 push	 esi
  0000b	57		 push	 edi
  0000c	51		 push	 ecx
  0000d	8d 7d f4	 lea	 edi, DWORD PTR [ebp-12]
  00010	b9 03 00 00 00	 mov	 ecx, 3
  00015	b8 cc cc cc cc	 mov	 eax, -858993460		; ccccccccH
  0001a	f3 ab		 rep stosd
  0001c	59		 pop	 ecx
  0001d	89 4d f8	 mov	 DWORD PTR _this$[ebp], ecx
  00020	b9 00 00 00 00	 mov	 ecx, OFFSET __03BD3355_xmemory
  00025	e8 00 00 00 00	 call	 @__CheckForDebuggerJustMyCode@4
  0002a	90		 npad	 1

; 953  :         static_assert(sizeof(value_type) > 0, "value_type must be complete before calling allocate.");
; 954  :         return static_cast<_Ty*>(_STD _Allocate<_New_alignof<_Ty>>(_Get_size_of_n<sizeof(_Ty)>(_Count)));

  0002b	8b 45 08	 mov	 eax, DWORD PTR __Count$[ebp]
  0002e	50		 push	 eax
  0002f	e8 00 00 00 00	 call	 ??$_Get_size_of_n@$07@std@@YAII@Z ; std::_Get_size_of_n<8>
  00034	83 c4 04	 add	 esp, 4
  00037	50		 push	 eax
  00038	e8 00 00 00 00	 call	 ??$_Allocate@$07U_Default_allocate_traits@std@@@std@@YAPAXI@Z ; std::_Allocate<8,std::_Default_allocate_traits>
  0003d	83 c4 04	 add	 esp, 4

; 955  :     }

  00040	5f		 pop	 edi
  00041	5e		 pop	 esi
  00042	5b		 pop	 ebx
  00043	81 c4 cc 00 00
	00		 add	 esp, 204		; 000000ccH
  00049	3b ec		 cmp	 ebp, esp
  0004b	e8 00 00 00 00	 call	 __RTC_CheckEsp
  00050	8b e5		 mov	 esp, ebp
  00052	5d		 pop	 ebp
  00053	c2 04 00	 ret	 4
?allocate@?$allocator@U_Container_proxy@std@@@std@@QAEPAU_Container_proxy@2@I@Z ENDP ; std::allocator<std::_Container_proxy>::allocate
_TEXT	ENDS
; Function compile flags: /Odtp /RTCsu /ZI
; File C:\Program Files\Microsoft Visual Studio\2022\Community\VC\Tools\MSVC\14.42.34433\include\utility
;	COMDAT ??$min@I@std@@YAABIABI0@Z
_TEXT	SEGMENT
tv65 = -208						; size = 4
$T1 = -200						; size = 4
__Left$ = 8						; size = 4
__Right$ = 12						; size = 4
??$min@I@std@@YAABIABI0@Z PROC				; std::min<unsigned int>, COMDAT

; 99   :         noexcept(_Right < _Left)) /* strengthened */ {

  00000	55		 push	 ebp
  00001	8b ec		 mov	 ebp, esp
  00003	81 ec d0 00 00
	00		 sub	 esp, 208		; 000000d0H
  00009	53		 push	 ebx
  0000a	56		 push	 esi
  0000b	57		 push	 edi
  0000c	8d 7d f0	 lea	 edi, DWORD PTR [ebp-16]
  0000f	b9 04 00 00 00	 mov	 ecx, 4
  00014	b8 cc cc cc cc	 mov	 eax, -858993460		; ccccccccH
  00019	f3 ab		 rep stosd
  0001b	b9 00 00 00 00	 mov	 ecx, OFFSET __69285096_utility
  00020	e8 00 00 00 00	 call	 @__CheckForDebuggerJustMyCode@4
  00025	90		 npad	 1

; 100  :     // return smaller of _Left and _Right
; 101  :     return _Right < _Left ? _Right : _Left;

  00026	8b 45 0c	 mov	 eax, DWORD PTR __Right$[ebp]
  00029	8b 4d 08	 mov	 ecx, DWORD PTR __Left$[ebp]
  0002c	8b 10		 mov	 edx, DWORD PTR [eax]
  0002e	3b 11		 cmp	 edx, DWORD PTR [ecx]
  00030	73 0b		 jae	 SHORT $LN3@min
  00032	8b 45 0c	 mov	 eax, DWORD PTR __Right$[ebp]
  00035	89 85 30 ff ff
	ff		 mov	 DWORD PTR tv65[ebp], eax
  0003b	eb 09		 jmp	 SHORT $LN4@min
$LN3@min:
  0003d	8b 4d 08	 mov	 ecx, DWORD PTR __Left$[ebp]
  00040	89 8d 30 ff ff
	ff		 mov	 DWORD PTR tv65[ebp], ecx
$LN4@min:
  00046	8b 95 30 ff ff
	ff		 mov	 edx, DWORD PTR tv65[ebp]
  0004c	89 95 38 ff ff
	ff		 mov	 DWORD PTR $T1[ebp], edx
  00052	8b 85 38 ff ff
	ff		 mov	 eax, DWORD PTR $T1[ebp]

; 102  : }

  00058	5f		 pop	 edi
  00059	5e		 pop	 esi
  0005a	5b		 pop	 ebx
  0005b	81 c4 d0 00 00
	00		 add	 esp, 208		; 000000d0H
  00061	3b ec		 cmp	 ebp, esp
  00063	e8 00 00 00 00	 call	 __RTC_CheckEsp
  00068	8b e5		 mov	 esp, ebp
  0006a	5d		 pop	 ebp
  0006b	c3		 ret	 0
??$min@I@std@@YAABIABI0@Z ENDP				; std::min<unsigned int>
_TEXT	ENDS
; Function compile flags: /Odtp /RTCsu /ZI
; File C:\Program Files\Microsoft Visual Studio\2022\Community\VC\Tools\MSVC\14.42.34433\include\ostream
;	COMDAT ??$?6U?$char_traits@D@std@@@std@@YAAAV?$basic_ostream@DU?$char_traits@D@std@@@0@AAV10@PBD@Z
_TEXT	SEGMENT
tv135 = -308						; size = 8
tv337 = -300						; size = 8
tv284 = -292						; size = 8
tv323 = -292						; size = 8
tv137 = -288						; size = 4
tv285 = -288						; size = 4
$T2 = -280						; size = 4
__Ok$ = -76						; size = 8
__Pad$ = -60						; size = 8
__Count$ = -44						; size = 8
__State$ = -28						; size = 4
__$ArrayPad$ = -20					; size = 4
__$EHRec$ = -16						; size = 16
__Ostr$ = 8						; size = 4
__Val$ = 12						; size = 4
??$?6U?$char_traits@D@std@@@std@@YAAAV?$basic_ostream@DU?$char_traits@D@std@@@0@AAV10@PBD@Z PROC ; std::operator<<<std::char_traits<char> >, COMDAT

; 774  : basic_ostream<char, _Traits>& operator<<(basic_ostream<char, _Traits>& _Ostr, const char* _Val) {

  00000	55		 push	 ebp
  00001	8b ec		 mov	 ebp, esp
  00003	6a ff		 push	 -1
  00005	68 00 00 00 00	 push	 __ehhandler$??$?6U?$char_traits@D@std@@@std@@YAAAV?$basic_ostream@DU?$char_traits@D@std@@@0@AAV10@PBD@Z
  0000a	64 a1 00 00 00
	00		 mov	 eax, DWORD PTR fs:0
  00010	50		 push	 eax
  00011	51		 push	 ecx
  00012	81 ec 24 01 00
	00		 sub	 esp, 292		; 00000124H
  00018	53		 push	 ebx
  00019	56		 push	 esi
  0001a	57		 push	 edi
  0001b	8d 7d 8c	 lea	 edi, DWORD PTR [ebp-116]
  0001e	b9 19 00 00 00	 mov	 ecx, 25			; 00000019H
  00023	b8 cc cc cc cc	 mov	 eax, -858993460		; ccccccccH
  00028	f3 ab		 rep stosd
  0002a	a1 00 00 00 00	 mov	 eax, DWORD PTR ___security_cookie
  0002f	33 c5		 xor	 eax, ebp
  00031	89 45 ec	 mov	 DWORD PTR __$ArrayPad$[ebp], eax
  00034	50		 push	 eax
  00035	8d 45 f4	 lea	 eax, DWORD PTR __$EHRec$[ebp+4]
  00038	64 a3 00 00 00
	00		 mov	 DWORD PTR fs:0, eax
  0003e	89 65 f0	 mov	 DWORD PTR __$EHRec$[ebp], esp
  00041	b9 00 00 00 00	 mov	 ecx, OFFSET __BB401B3C_ostream
  00046	e8 00 00 00 00	 call	 @__CheckForDebuggerJustMyCode@4
  0004b	90		 npad	 1

; 775  :     // insert NTBS into char stream
; 776  :     using _Elem = char;
; 777  :     using _Myos = basic_ostream<_Elem, _Traits>;
; 778  : 
; 779  :     ios_base::iostate _State = ios_base::goodbit;

  0004c	c7 45 e4 00 00
	00 00		 mov	 DWORD PTR __State$[ebp], 0

; 780  :     streamsize _Count        = static_cast<streamsize>(_Traits::length(_Val));

  00053	8b 45 0c	 mov	 eax, DWORD PTR __Val$[ebp]
  00056	50		 push	 eax
  00057	e8 00 00 00 00	 call	 ?length@?$_Narrow_char_traits@DH@std@@SAIQBD@Z ; std::_Narrow_char_traits<char,int>::length
  0005c	83 c4 04	 add	 esp, 4
  0005f	33 c9		 xor	 ecx, ecx
  00061	89 45 d4	 mov	 DWORD PTR __Count$[ebp], eax
  00064	89 4d d8	 mov	 DWORD PTR __Count$[ebp+4], ecx

; 781  :     streamsize _Pad          = _Ostr.width() <= 0 || _Ostr.width() <= _Count ? 0 : _Ostr.width() - _Count;

  00067	8b 45 08	 mov	 eax, DWORD PTR __Ostr$[ebp]
  0006a	8b 08		 mov	 ecx, DWORD PTR [eax]
  0006c	8b 55 08	 mov	 edx, DWORD PTR __Ostr$[ebp]
  0006f	03 51 04	 add	 edx, DWORD PTR [ecx+4]
  00072	8b f4		 mov	 esi, esp
  00074	8b ca		 mov	 ecx, edx
  00076	ff 15 00 00 00
	00		 call	 DWORD PTR __imp_?width@ios_base@std@@QBE_JXZ
  0007c	3b f4		 cmp	 esi, esp
  0007e	e8 00 00 00 00	 call	 __RTC_CheckEsp
  00083	89 85 dc fe ff
	ff		 mov	 DWORD PTR tv323[ebp], eax
  00089	89 95 e0 fe ff
	ff		 mov	 DWORD PTR tv323[ebp+4], edx
  0008f	83 bd e0 fe ff
	ff 00		 cmp	 DWORD PTR tv323[ebp+4], 0
  00096	7c 79		 jl	 SHORT $LN17@operator
  00098	7f 09		 jg	 SHORT $LN24@operator
  0009a	83 bd dc fe ff
	ff 00		 cmp	 DWORD PTR tv323[ebp], 0
  000a1	76 6e		 jbe	 SHORT $LN17@operator
$LN24@operator:
  000a3	8b 45 08	 mov	 eax, DWORD PTR __Ostr$[ebp]
  000a6	8b 08		 mov	 ecx, DWORD PTR [eax]
  000a8	8b 55 08	 mov	 edx, DWORD PTR __Ostr$[ebp]
  000ab	03 51 04	 add	 edx, DWORD PTR [ecx+4]
  000ae	8b f4		 mov	 esi, esp
  000b0	8b ca		 mov	 ecx, edx
  000b2	ff 15 00 00 00
	00		 call	 DWORD PTR __imp_?width@ios_base@std@@QBE_JXZ
  000b8	3b f4		 cmp	 esi, esp
  000ba	e8 00 00 00 00	 call	 __RTC_CheckEsp
  000bf	89 85 d4 fe ff
	ff		 mov	 DWORD PTR tv337[ebp], eax
  000c5	89 95 d8 fe ff
	ff		 mov	 DWORD PTR tv337[ebp+4], edx
  000cb	8b 85 d8 fe ff
	ff		 mov	 eax, DWORD PTR tv337[ebp+4]
  000d1	3b 45 d8	 cmp	 eax, DWORD PTR __Count$[ebp+4]
  000d4	7c 3b		 jl	 SHORT $LN17@operator
  000d6	7f 0b		 jg	 SHORT $LN25@operator
  000d8	8b 8d d4 fe ff
	ff		 mov	 ecx, DWORD PTR tv337[ebp]
  000de	3b 4d d4	 cmp	 ecx, DWORD PTR __Count$[ebp]
  000e1	76 2e		 jbe	 SHORT $LN17@operator
$LN25@operator:
  000e3	8b 55 08	 mov	 edx, DWORD PTR __Ostr$[ebp]
  000e6	8b 02		 mov	 eax, DWORD PTR [edx]
  000e8	8b 4d 08	 mov	 ecx, DWORD PTR __Ostr$[ebp]
  000eb	03 48 04	 add	 ecx, DWORD PTR [eax+4]
  000ee	8b f4		 mov	 esi, esp
  000f0	ff 15 00 00 00
	00		 call	 DWORD PTR __imp_?width@ios_base@std@@QBE_JXZ
  000f6	3b f4		 cmp	 esi, esp
  000f8	e8 00 00 00 00	 call	 __RTC_CheckEsp
  000fd	2b 45 d4	 sub	 eax, DWORD PTR __Count$[ebp]
  00100	1b 55 d8	 sbb	 edx, DWORD PTR __Count$[ebp+4]
  00103	89 85 cc fe ff
	ff		 mov	 DWORD PTR tv135[ebp], eax
  00109	89 95 d0 fe ff
	ff		 mov	 DWORD PTR tv135[ebp+4], edx
  0010f	eb 0b		 jmp	 SHORT $LN18@operator
$LN17@operator:
  00111	0f 57 c0	 xorps	 xmm0, xmm0
  00114	66 0f 13 85 cc
	fe ff ff	 movlpd	 QWORD PTR tv135[ebp], xmm0
$LN18@operator:
  0011c	8b 8d cc fe ff
	ff		 mov	 ecx, DWORD PTR tv135[ebp]
  00122	8b 95 d0 fe ff
	ff		 mov	 edx, DWORD PTR tv135[ebp+4]
  00128	89 4d c4	 mov	 DWORD PTR __Pad$[ebp], ecx
  0012b	89 55 c8	 mov	 DWORD PTR __Pad$[ebp+4], edx

; 782  :     const typename _Myos::sentry _Ok(_Ostr);

  0012e	8b 45 08	 mov	 eax, DWORD PTR __Ostr$[ebp]
  00131	50		 push	 eax
  00132	8d 4d b4	 lea	 ecx, DWORD PTR __Ok$[ebp]
  00135	e8 00 00 00 00	 call	 ??0sentry@?$basic_ostream@DU?$char_traits@D@std@@@std@@QAE@AAV12@@Z ; std::basic_ostream<char,std::char_traits<char> >::sentry::sentry
  0013a	c7 45 fc 00 00
	00 00		 mov	 DWORD PTR __$EHRec$[ebp+12], 0

; 783  : 
; 784  :     if (!_Ok) {

  00141	8d 4d b4	 lea	 ecx, DWORD PTR __Ok$[ebp]
  00144	e8 00 00 00 00	 call	 ??Bsentry@?$basic_ostream@DU?$char_traits@D@std@@@std@@QBE_NXZ ; std::basic_ostream<char,std::char_traits<char> >::sentry::operator bool
  00149	0f b6 c0	 movzx	 eax, al
  0014c	85 c0		 test	 eax, eax
  0014e	75 0e		 jne	 SHORT $LN8@operator

; 785  :         _State |= ios_base::badbit;

  00150	8b 45 e4	 mov	 eax, DWORD PTR __State$[ebp]
  00153	83 c8 04	 or	 eax, 4
  00156	89 45 e4	 mov	 DWORD PTR __State$[ebp], eax

; 786  :     } else { // state okay, insert

  00159	e9 42 02 00 00	 jmp	 $LN22@operator
$LN8@operator:

; 787  :         _TRY_IO_BEGIN

  0015e	c6 45 fc 01	 mov	 BYTE PTR __$EHRec$[ebp+12], 1

; 788  :         if ((_Ostr.flags() & ios_base::adjustfield) != ios_base::left) {

  00162	8b 45 08	 mov	 eax, DWORD PTR __Ostr$[ebp]
  00165	8b 08		 mov	 ecx, DWORD PTR [eax]
  00167	8b 55 08	 mov	 edx, DWORD PTR __Ostr$[ebp]
  0016a	03 51 04	 add	 edx, DWORD PTR [ecx+4]
  0016d	8b f4		 mov	 esi, esp
  0016f	8b ca		 mov	 ecx, edx
  00171	ff 15 00 00 00
	00		 call	 DWORD PTR __imp_?flags@ios_base@std@@QBEHXZ
  00177	3b f4		 cmp	 esi, esp
  00179	e8 00 00 00 00	 call	 __RTC_CheckEsp
  0017e	25 c0 01 00 00	 and	 eax, 448		; 000001c0H
  00183	83 f8 40	 cmp	 eax, 64			; 00000040H
  00186	0f 84 a3 00 00
	00		 je	 $LN3@operator

; 789  :             for (; 0 < _Pad; --_Pad) { // pad on left

  0018c	eb 12		 jmp	 SHORT $LN4@operator
$LN2@operator:
  0018e	8b 45 c4	 mov	 eax, DWORD PTR __Pad$[ebp]
  00191	83 e8 01	 sub	 eax, 1
  00194	8b 4d c8	 mov	 ecx, DWORD PTR __Pad$[ebp+4]
  00197	83 d9 00	 sbb	 ecx, 0
  0019a	89 45 c4	 mov	 DWORD PTR __Pad$[ebp], eax
  0019d	89 4d c8	 mov	 DWORD PTR __Pad$[ebp+4], ecx
$LN4@operator:
  001a0	83 7d c8 00	 cmp	 DWORD PTR __Pad$[ebp+4], 0
  001a4	0f 8c 85 00 00
	00		 jl	 $LN3@operator
  001aa	7f 06		 jg	 SHORT $LN26@operator
  001ac	83 7d c4 00	 cmp	 DWORD PTR __Pad$[ebp], 0
  001b0	76 7d		 jbe	 SHORT $LN3@operator
$LN26@operator:

; 790  :                 if (_Traits::eq_int_type(_Traits::eof(), _Ostr.rdbuf()->sputc(_Ostr.fill()))) {

  001b2	8b 45 08	 mov	 eax, DWORD PTR __Ostr$[ebp]
  001b5	8b 08		 mov	 ecx, DWORD PTR [eax]
  001b7	8b 55 08	 mov	 edx, DWORD PTR __Ostr$[ebp]
  001ba	03 51 04	 add	 edx, DWORD PTR [ecx+4]
  001bd	8b f4		 mov	 esi, esp
  001bf	8b ca		 mov	 ecx, edx
  001c1	ff 15 00 00 00
	00		 call	 DWORD PTR __imp_?fill@?$basic_ios@DU?$char_traits@D@std@@@std@@QBEDXZ
  001c7	3b f4		 cmp	 esi, esp
  001c9	e8 00 00 00 00	 call	 __RTC_CheckEsp
  001ce	8b f4		 mov	 esi, esp
  001d0	0f b6 c0	 movzx	 eax, al
  001d3	50		 push	 eax
  001d4	8b 4d 08	 mov	 ecx, DWORD PTR __Ostr$[ebp]
  001d7	8b 11		 mov	 edx, DWORD PTR [ecx]
  001d9	8b 4d 08	 mov	 ecx, DWORD PTR __Ostr$[ebp]
  001dc	03 4a 04	 add	 ecx, DWORD PTR [edx+4]
  001df	8b fc		 mov	 edi, esp
  001e1	ff 15 00 00 00
	00		 call	 DWORD PTR __imp_?rdbuf@?$basic_ios@DU?$char_traits@D@std@@@std@@QBEPAV?$basic_streambuf@DU?$char_traits@D@std@@@2@XZ
  001e7	3b fc		 cmp	 edi, esp
  001e9	e8 00 00 00 00	 call	 __RTC_CheckEsp
  001ee	8b c8		 mov	 ecx, eax
  001f0	ff 15 00 00 00
	00		 call	 DWORD PTR __imp_?sputc@?$basic_streambuf@DU?$char_traits@D@std@@@std@@QAEHD@Z
  001f6	3b f4		 cmp	 esi, esp
  001f8	e8 00 00 00 00	 call	 __RTC_CheckEsp
  001fd	89 85 e0 fe ff
	ff		 mov	 DWORD PTR tv137[ebp], eax
  00203	8b 85 e0 fe ff
	ff		 mov	 eax, DWORD PTR tv137[ebp]
  00209	50		 push	 eax
  0020a	e8 00 00 00 00	 call	 ?eof@?$_Narrow_char_traits@DH@std@@SAHXZ ; std::_Narrow_char_traits<char,int>::eof
  0020f	50		 push	 eax
  00210	e8 00 00 00 00	 call	 ?eq_int_type@?$_Narrow_char_traits@DH@std@@SA_NHH@Z ; std::_Narrow_char_traits<char,int>::eq_int_type
  00215	83 c4 08	 add	 esp, 8
  00218	0f b6 c8	 movzx	 ecx, al
  0021b	85 c9		 test	 ecx, ecx
  0021d	74 0b		 je	 SHORT $LN12@operator

; 791  :                     _State |= ios_base::badbit; // insertion failed, quit

  0021f	8b 45 e4	 mov	 eax, DWORD PTR __State$[ebp]
  00222	83 c8 04	 or	 eax, 4
  00225	89 45 e4	 mov	 DWORD PTR __State$[ebp], eax

; 792  :                     break;

  00228	eb 05		 jmp	 SHORT $LN3@operator
$LN12@operator:

; 793  :                 }
; 794  :             }

  0022a	e9 5f ff ff ff	 jmp	 $LN2@operator
$LN3@operator:

; 795  :         }
; 796  : 
; 797  :         if (_State == ios_base::goodbit && _Ostr.rdbuf()->sputn(_Val, _Count) != _Count) {

  0022f	83 7d e4 00	 cmp	 DWORD PTR __State$[ebp], 0
  00233	75 64		 jne	 SHORT $LN13@operator
  00235	8b f4		 mov	 esi, esp
  00237	8b 45 d8	 mov	 eax, DWORD PTR __Count$[ebp+4]
  0023a	50		 push	 eax
  0023b	8b 4d d4	 mov	 ecx, DWORD PTR __Count$[ebp]
  0023e	51		 push	 ecx
  0023f	8b 55 0c	 mov	 edx, DWORD PTR __Val$[ebp]
  00242	52		 push	 edx
  00243	8b 45 08	 mov	 eax, DWORD PTR __Ostr$[ebp]
  00246	8b 08		 mov	 ecx, DWORD PTR [eax]
  00248	8b 55 08	 mov	 edx, DWORD PTR __Ostr$[ebp]
  0024b	03 51 04	 add	 edx, DWORD PTR [ecx+4]
  0024e	8b fc		 mov	 edi, esp
  00250	8b ca		 mov	 ecx, edx
  00252	ff 15 00 00 00
	00		 call	 DWORD PTR __imp_?rdbuf@?$basic_ios@DU?$char_traits@D@std@@@std@@QBEPAV?$basic_streambuf@DU?$char_traits@D@std@@@2@XZ
  00258	3b fc		 cmp	 edi, esp
  0025a	e8 00 00 00 00	 call	 __RTC_CheckEsp
  0025f	8b c8		 mov	 ecx, eax
  00261	ff 15 00 00 00
	00		 call	 DWORD PTR __imp_?sputn@?$basic_streambuf@DU?$char_traits@D@std@@@std@@QAE_JPBD_J@Z
  00267	3b f4		 cmp	 esi, esp
  00269	e8 00 00 00 00	 call	 __RTC_CheckEsp
  0026e	89 85 dc fe ff
	ff		 mov	 DWORD PTR tv284[ebp], eax
  00274	89 95 e0 fe ff
	ff		 mov	 DWORD PTR tv284[ebp+4], edx
  0027a	8b 85 dc fe ff
	ff		 mov	 eax, DWORD PTR tv284[ebp]
  00280	3b 45 d4	 cmp	 eax, DWORD PTR __Count$[ebp]
  00283	75 0b		 jne	 SHORT $LN27@operator
  00285	8b 8d e0 fe ff
	ff		 mov	 ecx, DWORD PTR tv284[ebp+4]
  0028b	3b 4d d8	 cmp	 ecx, DWORD PTR __Count$[ebp+4]
  0028e	74 09		 je	 SHORT $LN13@operator
$LN27@operator:

; 798  :             _State |= ios_base::badbit;

  00290	8b 45 e4	 mov	 eax, DWORD PTR __State$[ebp]
  00293	83 c8 04	 or	 eax, 4
  00296	89 45 e4	 mov	 DWORD PTR __State$[ebp], eax
$LN13@operator:

; 799  :         }
; 800  : 
; 801  :         if (_State == ios_base::goodbit) {

  00299	83 7d e4 00	 cmp	 DWORD PTR __State$[ebp], 0
  0029d	0f 85 a3 00 00
	00		 jne	 $LN6@operator

; 802  :             for (; 0 < _Pad; --_Pad) { // pad on right

  002a3	eb 12		 jmp	 SHORT $LN7@operator
$LN5@operator:
  002a5	8b 45 c4	 mov	 eax, DWORD PTR __Pad$[ebp]
  002a8	83 e8 01	 sub	 eax, 1
  002ab	8b 4d c8	 mov	 ecx, DWORD PTR __Pad$[ebp+4]
  002ae	83 d9 00	 sbb	 ecx, 0
  002b1	89 45 c4	 mov	 DWORD PTR __Pad$[ebp], eax
  002b4	89 4d c8	 mov	 DWORD PTR __Pad$[ebp+4], ecx
$LN7@operator:
  002b7	83 7d c8 00	 cmp	 DWORD PTR __Pad$[ebp+4], 0
  002bb	0f 8c 85 00 00
	00		 jl	 $LN6@operator
  002c1	7f 06		 jg	 SHORT $LN28@operator
  002c3	83 7d c4 00	 cmp	 DWORD PTR __Pad$[ebp], 0
  002c7	76 7d		 jbe	 SHORT $LN6@operator
$LN28@operator:

; 803  :                 if (_Traits::eq_int_type(_Traits::eof(), _Ostr.rdbuf()->sputc(_Ostr.fill()))) {

  002c9	8b 45 08	 mov	 eax, DWORD PTR __Ostr$[ebp]
  002cc	8b 08		 mov	 ecx, DWORD PTR [eax]
  002ce	8b 55 08	 mov	 edx, DWORD PTR __Ostr$[ebp]
  002d1	03 51 04	 add	 edx, DWORD PTR [ecx+4]
  002d4	8b f4		 mov	 esi, esp
  002d6	8b ca		 mov	 ecx, edx
  002d8	ff 15 00 00 00
	00		 call	 DWORD PTR __imp_?fill@?$basic_ios@DU?$char_traits@D@std@@@std@@QBEDXZ
  002de	3b f4		 cmp	 esi, esp
  002e0	e8 00 00 00 00	 call	 __RTC_CheckEsp
  002e5	8b f4		 mov	 esi, esp
  002e7	0f b6 c0	 movzx	 eax, al
  002ea	50		 push	 eax
  002eb	8b 4d 08	 mov	 ecx, DWORD PTR __Ostr$[ebp]
  002ee	8b 11		 mov	 edx, DWORD PTR [ecx]
  002f0	8b 4d 08	 mov	 ecx, DWORD PTR __Ostr$[ebp]
  002f3	03 4a 04	 add	 ecx, DWORD PTR [edx+4]
  002f6	8b fc		 mov	 edi, esp
  002f8	ff 15 00 00 00
	00		 call	 DWORD PTR __imp_?rdbuf@?$basic_ios@DU?$char_traits@D@std@@@std@@QBEPAV?$basic_streambuf@DU?$char_traits@D@std@@@2@XZ
  002fe	3b fc		 cmp	 edi, esp
  00300	e8 00 00 00 00	 call	 __RTC_CheckEsp
  00305	8b c8		 mov	 ecx, eax
  00307	ff 15 00 00 00
	00		 call	 DWORD PTR __imp_?sputc@?$basic_streambuf@DU?$char_traits@D@std@@@std@@QAEHD@Z
  0030d	3b f4		 cmp	 esi, esp
  0030f	e8 00 00 00 00	 call	 __RTC_CheckEsp
  00314	89 85 e0 fe ff
	ff		 mov	 DWORD PTR tv285[ebp], eax
  0031a	8b 85 e0 fe ff
	ff		 mov	 eax, DWORD PTR tv285[ebp]
  00320	50		 push	 eax
  00321	e8 00 00 00 00	 call	 ?eof@?$_Narrow_char_traits@DH@std@@SAHXZ ; std::_Narrow_char_traits<char,int>::eof
  00326	50		 push	 eax
  00327	e8 00 00 00 00	 call	 ?eq_int_type@?$_Narrow_char_traits@DH@std@@SA_NHH@Z ; std::_Narrow_char_traits<char,int>::eq_int_type
  0032c	83 c4 08	 add	 esp, 8
  0032f	0f b6 c8	 movzx	 ecx, al
  00332	85 c9		 test	 ecx, ecx
  00334	74 0b		 je	 SHORT $LN15@operator

; 804  :                     _State |= ios_base::badbit; // insertion failed, quit

  00336	8b 45 e4	 mov	 eax, DWORD PTR __State$[ebp]
  00339	83 c8 04	 or	 eax, 4
  0033c	89 45 e4	 mov	 DWORD PTR __State$[ebp], eax

; 805  :                     break;

  0033f	eb 05		 jmp	 SHORT $LN6@operator
$LN15@operator:

; 806  :                 }
; 807  :             }

  00341	e9 5f ff ff ff	 jmp	 $LN5@operator
$LN6@operator:

; 808  :         }
; 809  : 
; 810  :         _Ostr.width(0);

  00346	8b f4		 mov	 esi, esp
  00348	6a 00		 push	 0
  0034a	6a 00		 push	 0
  0034c	8b 45 08	 mov	 eax, DWORD PTR __Ostr$[ebp]
  0034f	8b 08		 mov	 ecx, DWORD PTR [eax]
  00351	8b 55 08	 mov	 edx, DWORD PTR __Ostr$[ebp]
  00354	03 51 04	 add	 edx, DWORD PTR [ecx+4]
  00357	8b ca		 mov	 ecx, edx
  00359	ff 15 00 00 00
	00		 call	 DWORD PTR __imp_?width@ios_base@std@@QAE_J_J@Z
  0035f	3b f4		 cmp	 esi, esp
  00361	e8 00 00 00 00	 call	 __RTC_CheckEsp
  00366	90		 npad	 1
  00367	eb 27		 jmp	 SHORT $LN19@operator
__catch$??$?6U?$char_traits@D@std@@@std@@YAAAV?$basic_ostream@DU?$char_traits@D@std@@@0@AAV10@PBD@Z$0:

; 811  :         _CATCH_IO_(ios_base, _Ostr)

  00369	8b f4		 mov	 esi, esp
  0036b	6a 01		 push	 1
  0036d	6a 04		 push	 4
  0036f	8b 45 08	 mov	 eax, DWORD PTR __Ostr$[ebp]
  00372	8b 08		 mov	 ecx, DWORD PTR [eax]
  00374	8b 55 08	 mov	 edx, DWORD PTR __Ostr$[ebp]
  00377	03 51 04	 add	 edx, DWORD PTR [ecx+4]
  0037a	8b ca		 mov	 ecx, edx
  0037c	ff 15 00 00 00
	00		 call	 DWORD PTR __imp_?setstate@?$basic_ios@DU?$char_traits@D@std@@@std@@QAEXH_N@Z
  00382	3b f4		 cmp	 esi, esp
  00384	e8 00 00 00 00	 call	 __RTC_CheckEsp
  00389	90		 npad	 1
  0038a	b8 00 00 00 00	 mov	 eax, $LN23@operator
  0038f	c3		 ret	 0
$LN19@operator:
  00390	c7 45 fc 00 00
	00 00		 mov	 DWORD PTR __$EHRec$[ebp+12], 0
  00397	eb 07		 jmp	 SHORT $LN22@operator
$LN23@operator:
  00399	c7 45 fc 00 00
	00 00		 mov	 DWORD PTR __$EHRec$[ebp+12], 0
$LN22@operator:

; 812  :     }
; 813  : 
; 814  :     _Ostr.setstate(_State);

  003a0	8b f4		 mov	 esi, esp
  003a2	6a 00		 push	 0
  003a4	8b 45 e4	 mov	 eax, DWORD PTR __State$[ebp]
  003a7	50		 push	 eax
  003a8	8b 4d 08	 mov	 ecx, DWORD PTR __Ostr$[ebp]
  003ab	8b 11		 mov	 edx, DWORD PTR [ecx]
  003ad	8b 4d 08	 mov	 ecx, DWORD PTR __Ostr$[ebp]
  003b0	03 4a 04	 add	 ecx, DWORD PTR [edx+4]
  003b3	ff 15 00 00 00
	00		 call	 DWORD PTR __imp_?setstate@?$basic_ios@DU?$char_traits@D@std@@@std@@QAEXH_N@Z
  003b9	3b f4		 cmp	 esi, esp
  003bb	e8 00 00 00 00	 call	 __RTC_CheckEsp
  003c0	90		 npad	 1

; 815  :     return _Ostr;

  003c1	8b 45 08	 mov	 eax, DWORD PTR __Ostr$[ebp]
  003c4	89 85 e8 fe ff
	ff		 mov	 DWORD PTR $T2[ebp], eax
  003ca	c7 45 fc ff ff
	ff ff		 mov	 DWORD PTR __$EHRec$[ebp+12], -1
  003d1	8d 4d b4	 lea	 ecx, DWORD PTR __Ok$[ebp]
  003d4	e8 00 00 00 00	 call	 ??1sentry@?$basic_ostream@DU?$char_traits@D@std@@@std@@QAE@XZ ; std::basic_ostream<char,std::char_traits<char> >::sentry::~sentry
  003d9	8b 85 e8 fe ff
	ff		 mov	 eax, DWORD PTR $T2[ebp]

; 816  : }

  003df	52		 push	 edx
  003e0	8b cd		 mov	 ecx, ebp
  003e2	50		 push	 eax
  003e3	8d 15 00 00 00
	00		 lea	 edx, DWORD PTR $LN32@operator
  003e9	e8 00 00 00 00	 call	 @_RTC_CheckStackVars@8
  003ee	58		 pop	 eax
  003ef	5a		 pop	 edx
  003f0	8b 4d f4	 mov	 ecx, DWORD PTR __$EHRec$[ebp+4]
  003f3	64 89 0d 00 00
	00 00		 mov	 DWORD PTR fs:0, ecx
  003fa	59		 pop	 ecx
  003fb	5f		 pop	 edi
  003fc	5e		 pop	 esi
  003fd	5b		 pop	 ebx
  003fe	8b 4d ec	 mov	 ecx, DWORD PTR __$ArrayPad$[ebp]
  00401	33 cd		 xor	 ecx, ebp
  00403	e8 00 00 00 00	 call	 @__security_check_cookie@4
  00408	81 c4 34 01 00
	00		 add	 esp, 308		; 00000134H
  0040e	3b ec		 cmp	 ebp, esp
  00410	e8 00 00 00 00	 call	 __RTC_CheckEsp
  00415	8b e5		 mov	 esp, ebp
  00417	5d		 pop	 ebp
  00418	c3		 ret	 0
  00419	0f 1f 00	 npad	 3
$LN32@operator:
  0041c	01 00 00 00	 DD	 1
  00420	00 00 00 00	 DD	 $LN31@operator
$LN31@operator:
  00424	b4 ff ff ff	 DD	 -76			; ffffffb4H
  00428	08 00 00 00	 DD	 8
  0042c	00 00 00 00	 DD	 $LN29@operator
$LN29@operator:
  00430	5f		 DB	 95			; 0000005fH
  00431	4f		 DB	 79			; 0000004fH
  00432	6b		 DB	 107			; 0000006bH
  00433	00		 DB	 0
_TEXT	ENDS
;	COMDAT text$x
text$x	SEGMENT
__unwindfunclet$??$?6U?$char_traits@D@std@@@std@@YAAAV?$basic_ostream@DU?$char_traits@D@std@@@0@AAV10@PBD@Z$2:
  00000	8d 4d b4	 lea	 ecx, DWORD PTR __Ok$[ebp]
  00003	e9 00 00 00 00	 jmp	 ??1sentry@?$basic_ostream@DU?$char_traits@D@std@@@std@@QAE@XZ ; std::basic_ostream<char,std::char_traits<char> >::sentry::~sentry
  00008	cc		 int	 3
  00009	cc		 int	 3
  0000a	cc		 int	 3
  0000b	cc		 int	 3
  0000c	cc		 int	 3
__ehhandler$??$?6U?$char_traits@D@std@@@std@@YAAAV?$basic_ostream@DU?$char_traits@D@std@@@0@AAV10@PBD@Z:
  0000d	90		 npad	 1
  0000e	90		 npad	 1
  0000f	8b 54 24 08	 mov	 edx, DWORD PTR [esp+8]
  00013	8d 42 0c	 lea	 eax, DWORD PTR [edx+12]
  00016	8b 8a c8 fe ff
	ff		 mov	 ecx, DWORD PTR [edx-312]
  0001c	33 c8		 xor	 ecx, eax
  0001e	e8 00 00 00 00	 call	 @__security_check_cookie@4
  00023	8b 4a f8	 mov	 ecx, DWORD PTR [edx-8]
  00026	33 c8		 xor	 ecx, eax
  00028	e8 00 00 00 00	 call	 @__security_check_cookie@4
  0002d	b8 00 00 00 00	 mov	 eax, OFFSET __ehfuncinfo$??$?6U?$char_traits@D@std@@@std@@YAAAV?$basic_ostream@DU?$char_traits@D@std@@@0@AAV10@PBD@Z
  00032	e9 00 00 00 00	 jmp	 ___CxxFrameHandler3
text$x	ENDS
??$?6U?$char_traits@D@std@@@std@@YAAAV?$basic_ostream@DU?$char_traits@D@std@@@0@AAV10@PBD@Z ENDP ; std::operator<<<std::char_traits<char> >
; Function compile flags: /Odtp /RTCsu /ZI
; File C:\Users\gvent\OneDrive\Desktop\KPO\Lab1\Lab1\MonthUtils.cpp
;	COMDAT ?getEventDate@@YAXHHAAH0@Z
_TEXT	SEGMENT
tv74 = -208						; size = 4
_firstDayOfSummer$1 = -8				; size = 4
_eventDayNumber$ = 8					; size = 4
_year$ = 12						; size = 4
_day$ = 16						; size = 4
_month$ = 20						; size = 4
?getEventDate@@YAXHHAAH0@Z PROC				; getEventDate, COMDAT

; 45   : void getEventDate(int eventDayNumber, int year, int& day, int& month) {

  00000	55		 push	 ebp
  00001	8b ec		 mov	 ebp, esp
  00003	81 ec d0 00 00
	00		 sub	 esp, 208		; 000000d0H
  00009	53		 push	 ebx
  0000a	56		 push	 esi
  0000b	57		 push	 edi
  0000c	8d 7d f0	 lea	 edi, DWORD PTR [ebp-16]
  0000f	b9 04 00 00 00	 mov	 ecx, 4
  00014	b8 cc cc cc cc	 mov	 eax, -858993460		; ccccccccH
  00019	f3 ab		 rep stosd
  0001b	b9 00 00 00 00	 mov	 ecx, OFFSET __E5840863_MonthUtils@cpp
  00020	e8 00 00 00 00	 call	 @__CheckForDebuggerJustMyCode@4
  00025	90		 npad	 1

; 46   :     //     
; 47   :     if (eventDayNumber == 256) {

  00026	81 7d 08 00 01
	00 00		 cmp	 DWORD PTR _eventDayNumber$[ebp], 256 ; 00000100H
  0002d	75 1b		 jne	 SHORT $LN2@getEventDa

; 48   :         //  : 256-  
; 49   :         getDateFromDayNumber(256, year, day, month);

  0002f	8b 45 14	 mov	 eax, DWORD PTR _month$[ebp]
  00032	50		 push	 eax
  00033	8b 4d 10	 mov	 ecx, DWORD PTR _day$[ebp]
  00036	51		 push	 ecx
  00037	8b 55 0c	 mov	 edx, DWORD PTR _year$[ebp]
  0003a	52		 push	 edx
  0003b	68 00 01 00 00	 push	 256			; 00000100H
  00040	e8 00 00 00 00	 call	 ?getDateFromDayNumber@@YAXHHAAH0@Z ; getDateFromDayNumber
  00045	83 c4 10	 add	 esp, 16			; 00000010H

; 50   :     }

  00048	eb 6a		 jmp	 SHORT $LN5@getEventDa
$LN2@getEventDa:

; 51   :     else if (eventDayNumber == 1) {

  0004a	83 7d 08 01	 cmp	 DWORD PTR _eventDayNumber$[ebp], 1
  0004e	75 4c		 jne	 SHORT $LN4@getEventDa

; 52   :         //   : 152-  153- 
; 53   :         int firstDayOfSummer = YearUtils::isLeapYear(year) ? 153 : 152;

  00050	8b 45 0c	 mov	 eax, DWORD PTR _year$[ebp]
  00053	50		 push	 eax
  00054	e8 00 00 00 00	 call	 ?isLeapYear@YearUtils@@YA_NH@Z ; YearUtils::isLeapYear
  00059	83 c4 04	 add	 esp, 4
  0005c	0f b6 c8	 movzx	 ecx, al
  0005f	85 c9		 test	 ecx, ecx
  00061	74 0c		 je	 SHORT $LN7@getEventDa
  00063	c7 85 30 ff ff
	ff 99 00 00 00	 mov	 DWORD PTR tv74[ebp], 153 ; 00000099H
  0006d	eb 0a		 jmp	 SHORT $LN8@getEventDa
$LN7@getEventDa:
  0006f	c7 85 30 ff ff
	ff 98 00 00 00	 mov	 DWORD PTR tv74[ebp], 152 ; 00000098H
$LN8@getEventDa:
  00079	8b 95 30 ff ff
	ff		 mov	 edx, DWORD PTR tv74[ebp]
  0007f	89 55 f8	 mov	 DWORD PTR _firstDayOfSummer$1[ebp], edx

; 54   :         getDateFromDayNumber(firstDayOfSummer, year, day, month);

  00082	8b 45 14	 mov	 eax, DWORD PTR _month$[ebp]
  00085	50		 push	 eax
  00086	8b 4d 10	 mov	 ecx, DWORD PTR _day$[ebp]
  00089	51		 push	 ecx
  0008a	8b 55 0c	 mov	 edx, DWORD PTR _year$[ebp]
  0008d	52		 push	 edx
  0008e	8b 45 f8	 mov	 eax, DWORD PTR _firstDayOfSummer$1[ebp]
  00091	50		 push	 eax
  00092	e8 00 00 00 00	 call	 ?getDateFromDayNumber@@YAXHHAAH0@Z ; getDateFromDayNumber
  00097	83 c4 10	 add	 esp, 16			; 00000010H

; 55   :     }

  0009a	eb 18		 jmp	 SHORT $LN5@getEventDa
$LN4@getEventDa:

; 56   :     else {
; 57   :         getDateFromDayNumber(eventDayNumber, year, day, month);

  0009c	8b 45 14	 mov	 eax, DWORD PTR _month$[ebp]
  0009f	50		 push	 eax
  000a0	8b 4d 10	 mov	 ecx, DWORD PTR _day$[ebp]
  000a3	51		 push	 ecx
  000a4	8b 55 0c	 mov	 edx, DWORD PTR _year$[ebp]
  000a7	52		 push	 edx
  000a8	8b 45 08	 mov	 eax, DWORD PTR _eventDayNumber$[ebp]
  000ab	50		 push	 eax
  000ac	e8 00 00 00 00	 call	 ?getDateFromDayNumber@@YAXHHAAH0@Z ; getDateFromDayNumber
  000b1	83 c4 10	 add	 esp, 16			; 00000010H
$LN5@getEventDa:

; 58   :     }
; 59   : }

  000b4	5f		 pop	 edi
  000b5	5e		 pop	 esi
  000b6	5b		 pop	 ebx
  000b7	81 c4 d0 00 00
	00		 add	 esp, 208		; 000000d0H
  000bd	3b ec		 cmp	 ebp, esp
  000bf	e8 00 00 00 00	 call	 __RTC_CheckEsp
  000c4	8b e5		 mov	 esp, ebp
  000c6	5d		 pop	 ebp
  000c7	c3		 ret	 0
?getEventDate@@YAXHHAAH0@Z ENDP				; getEventDate
_TEXT	ENDS
; Function compile flags: /Odtp /RTCsu /ZI
; File C:\Users\gvent\OneDrive\Desktop\KPO\Lab1\Lab1\MonthUtils.cpp
;	COMDAT ?getDateFromDayNumber@@YAXHHAAH0@Z
_TEXT	SEGMENT
tv68 = -288						; size = 4
_daysThisMonth$1 = -88					; size = 4
_daysPassed$ = -76					; size = 4
_daysInYear$ = -64					; size = 4
_daysInMonth$ = -52					; size = 48
_dayNumber$ = 8						; size = 4
_year$ = 12						; size = 4
_day$ = 16						; size = 4
_month$ = 20						; size = 4
?getDateFromDayNumber@@YAXHHAAH0@Z PROC			; getDateFromDayNumber, COMDAT

; 21   : void getDateFromDayNumber(int dayNumber, int year, int& day, int& month) {

  00000	55		 push	 ebp
  00001	8b ec		 mov	 ebp, esp
  00003	81 ec 20 01 00
	00		 sub	 esp, 288		; 00000120H
  00009	53		 push	 ebx
  0000a	56		 push	 esi
  0000b	57		 push	 edi
  0000c	8d 7d a0	 lea	 edi, DWORD PTR [ebp-96]
  0000f	b9 18 00 00 00	 mov	 ecx, 24			; 00000018H
  00014	b8 cc cc cc cc	 mov	 eax, -858993460		; ccccccccH
  00019	f3 ab		 rep stosd
  0001b	b9 00 00 00 00	 mov	 ecx, OFFSET __E5840863_MonthUtils@cpp
  00020	e8 00 00 00 00	 call	 @__CheckForDebuggerJustMyCode@4
  00025	90		 npad	 1

; 22   :     const int daysInMonth[] = { 31, 28, 31, 30, 31, 30, 31, 31, 30, 31, 30, 31 };

  00026	c7 45 cc 1f 00
	00 00		 mov	 DWORD PTR _daysInMonth$[ebp], 31 ; 0000001fH
  0002d	c7 45 d0 1c 00
	00 00		 mov	 DWORD PTR _daysInMonth$[ebp+4], 28 ; 0000001cH
  00034	c7 45 d4 1f 00
	00 00		 mov	 DWORD PTR _daysInMonth$[ebp+8], 31 ; 0000001fH
  0003b	c7 45 d8 1e 00
	00 00		 mov	 DWORD PTR _daysInMonth$[ebp+12], 30 ; 0000001eH
  00042	c7 45 dc 1f 00
	00 00		 mov	 DWORD PTR _daysInMonth$[ebp+16], 31 ; 0000001fH
  00049	c7 45 e0 1e 00
	00 00		 mov	 DWORD PTR _daysInMonth$[ebp+20], 30 ; 0000001eH
  00050	c7 45 e4 1f 00
	00 00		 mov	 DWORD PTR _daysInMonth$[ebp+24], 31 ; 0000001fH
  00057	c7 45 e8 1f 00
	00 00		 mov	 DWORD PTR _daysInMonth$[ebp+28], 31 ; 0000001fH
  0005e	c7 45 ec 1e 00
	00 00		 mov	 DWORD PTR _daysInMonth$[ebp+32], 30 ; 0000001eH
  00065	c7 45 f0 1f 00
	00 00		 mov	 DWORD PTR _daysInMonth$[ebp+36], 31 ; 0000001fH
  0006c	c7 45 f4 1e 00
	00 00		 mov	 DWORD PTR _daysInMonth$[ebp+40], 30 ; 0000001eH
  00073	c7 45 f8 1f 00
	00 00		 mov	 DWORD PTR _daysInMonth$[ebp+44], 31 ; 0000001fH

; 23   :     int daysInYear = YearUtils::isLeapYear(year) ? 366 : 365;

  0007a	8b 45 0c	 mov	 eax, DWORD PTR _year$[ebp]
  0007d	50		 push	 eax
  0007e	e8 00 00 00 00	 call	 ?isLeapYear@YearUtils@@YA_NH@Z ; YearUtils::isLeapYear
  00083	83 c4 04	 add	 esp, 4
  00086	0f b6 c8	 movzx	 ecx, al
  00089	85 c9		 test	 ecx, ecx
  0008b	74 0c		 je	 SHORT $LN10@getDateFro
  0008d	c7 85 e0 fe ff
	ff 6e 01 00 00	 mov	 DWORD PTR tv68[ebp], 366 ; 0000016eH
  00097	eb 0a		 jmp	 SHORT $LN11@getDateFro
$LN10@getDateFro:
  00099	c7 85 e0 fe ff
	ff 6d 01 00 00	 mov	 DWORD PTR tv68[ebp], 365 ; 0000016dH
$LN11@getDateFro:
  000a3	8b 95 e0 fe ff
	ff		 mov	 edx, DWORD PTR tv68[ebp]
  000a9	89 55 c0	 mov	 DWORD PTR _daysInYear$[ebp], edx

; 24   : 
; 25   :     if (dayNumber < 1 || dayNumber > daysInYear) {

  000ac	83 7d 08 01	 cmp	 DWORD PTR _dayNumber$[ebp], 1
  000b0	7c 08		 jl	 SHORT $LN6@getDateFro
  000b2	8b 45 08	 mov	 eax, DWORD PTR _dayNumber$[ebp]
  000b5	3b 45 c0	 cmp	 eax, DWORD PTR _daysInYear$[ebp]
  000b8	7e 15		 jle	 SHORT $LN5@getDateFro
$LN6@getDateFro:

; 26   :         cerr << "   .\n";

  000ba	68 00 00 00 00	 push	 OFFSET ??_C@_0CA@LELOEOPI@?M?e?b?e?p?m?$PL?i?5?o?n?p?$PP?d?j?n?b?$PL?i?5?m?n?l?e?p?5?d?m?$PP?4?6@
  000bf	a1 00 00 00 00	 mov	 eax, DWORD PTR __imp_?cerr@std@@3V?$basic_ostream@DU?$char_traits@D@std@@@1@A
  000c4	50		 push	 eax
  000c5	e8 00 00 00 00	 call	 ??$?6U?$char_traits@D@std@@@std@@YAAAV?$basic_ostream@DU?$char_traits@D@std@@@0@AAV10@PBD@Z ; std::operator<<<std::char_traits<char> >
  000ca	83 c4 08	 add	 esp, 8

; 27   :         return;

  000cd	eb 78		 jmp	 SHORT $LN1@getDateFro
$LN5@getDateFro:

; 28   :     }
; 29   : 
; 30   :     int daysPassed = 0;

  000cf	c7 45 b4 00 00
	00 00		 mov	 DWORD PTR _daysPassed$[ebp], 0

; 31   :     for (month = 0; month < 12; ++month) {

  000d6	8b 45 14	 mov	 eax, DWORD PTR _month$[ebp]
  000d9	c7 00 00 00 00
	00		 mov	 DWORD PTR [eax], 0
  000df	eb 0d		 jmp	 SHORT $LN4@getDateFro
$LN2@getDateFro:
  000e1	8b 45 14	 mov	 eax, DWORD PTR _month$[ebp]
  000e4	8b 08		 mov	 ecx, DWORD PTR [eax]
  000e6	83 c1 01	 add	 ecx, 1
  000e9	8b 55 14	 mov	 edx, DWORD PTR _month$[ebp]
  000ec	89 0a		 mov	 DWORD PTR [edx], ecx
$LN4@getDateFro:
  000ee	8b 45 14	 mov	 eax, DWORD PTR _month$[ebp]
  000f1	83 38 0c	 cmp	 DWORD PTR [eax], 12	; 0000000cH
  000f4	7d 51		 jge	 SHORT $LN3@getDateFro

; 32   :         int daysThisMonth = daysInMonth[month];

  000f6	8b 45 14	 mov	 eax, DWORD PTR _month$[ebp]
  000f9	8b 08		 mov	 ecx, DWORD PTR [eax]
  000fb	8b 54 8d cc	 mov	 edx, DWORD PTR _daysInMonth$[ebp+ecx*4]
  000ff	89 55 a8	 mov	 DWORD PTR _daysThisMonth$1[ebp], edx

; 33   :         if (month == 1 && YearUtils::isLeapYear(year)) {

  00102	8b 45 14	 mov	 eax, DWORD PTR _month$[ebp]
  00105	83 38 01	 cmp	 DWORD PTR [eax], 1
  00108	75 1a		 jne	 SHORT $LN7@getDateFro
  0010a	8b 45 0c	 mov	 eax, DWORD PTR _year$[ebp]
  0010d	50		 push	 eax
  0010e	e8 00 00 00 00	 call	 ?isLeapYear@YearUtils@@YA_NH@Z ; YearUtils::isLeapYear
  00113	83 c4 04	 add	 esp, 4
  00116	0f b6 c8	 movzx	 ecx, al
  00119	85 c9		 test	 ecx, ecx
  0011b	74 07		 je	 SHORT $LN7@getDateFro

; 34   :             daysThisMonth = 29; //    

  0011d	c7 45 a8 1d 00
	00 00		 mov	 DWORD PTR _daysThisMonth$1[ebp], 29 ; 0000001dH
$LN7@getDateFro:

; 35   :         }
; 36   :         if (dayNumber <= daysPassed + daysThisMonth) {

  00124	8b 45 b4	 mov	 eax, DWORD PTR _daysPassed$[ebp]
  00127	03 45 a8	 add	 eax, DWORD PTR _daysThisMonth$1[ebp]
  0012a	39 45 08	 cmp	 DWORD PTR _dayNumber$[ebp], eax
  0012d	7f 0d		 jg	 SHORT $LN8@getDateFro

; 37   :             day = dayNumber - daysPassed;

  0012f	8b 45 08	 mov	 eax, DWORD PTR _dayNumber$[ebp]
  00132	2b 45 b4	 sub	 eax, DWORD PTR _daysPassed$[ebp]
  00135	8b 4d 10	 mov	 ecx, DWORD PTR _day$[ebp]
  00138	89 01		 mov	 DWORD PTR [ecx], eax

; 38   :             break;

  0013a	eb 0b		 jmp	 SHORT $LN3@getDateFro
$LN8@getDateFro:

; 39   :         }
; 40   :         daysPassed += daysThisMonth;

  0013c	8b 45 b4	 mov	 eax, DWORD PTR _daysPassed$[ebp]
  0013f	03 45 a8	 add	 eax, DWORD PTR _daysThisMonth$1[ebp]
  00142	89 45 b4	 mov	 DWORD PTR _daysPassed$[ebp], eax

; 41   :     }

  00145	eb 9a		 jmp	 SHORT $LN2@getDateFro
$LN3@getDateFro:
$LN1@getDateFro:

; 42   : }

  00147	52		 push	 edx
  00148	8b cd		 mov	 ecx, ebp
  0014a	50		 push	 eax
  0014b	8d 15 00 00 00
	00		 lea	 edx, DWORD PTR $LN14@getDateFro
  00151	e8 00 00 00 00	 call	 @_RTC_CheckStackVars@8
  00156	58		 pop	 eax
  00157	5a		 pop	 edx
  00158	5f		 pop	 edi
  00159	5e		 pop	 esi
  0015a	5b		 pop	 ebx
  0015b	81 c4 20 01 00
	00		 add	 esp, 288		; 00000120H
  00161	3b ec		 cmp	 ebp, esp
  00163	e8 00 00 00 00	 call	 __RTC_CheckEsp
  00168	8b e5		 mov	 esp, ebp
  0016a	5d		 pop	 ebp
  0016b	c3		 ret	 0
$LN14@getDateFro:
  0016c	01 00 00 00	 DD	 1
  00170	00 00 00 00	 DD	 $LN13@getDateFro
$LN13@getDateFro:
  00174	cc ff ff ff	 DD	 -52			; ffffffccH
  00178	30 00 00 00	 DD	 48			; 00000030H
  0017c	00 00 00 00	 DD	 $LN12@getDateFro
$LN12@getDateFro:
  00180	64		 DB	 100			; 00000064H
  00181	61		 DB	 97			; 00000061H
  00182	79		 DB	 121			; 00000079H
  00183	73		 DB	 115			; 00000073H
  00184	49		 DB	 73			; 00000049H
  00185	6e		 DB	 110			; 0000006eH
  00186	4d		 DB	 77			; 0000004dH
  00187	6f		 DB	 111			; 0000006fH
  00188	6e		 DB	 110			; 0000006eH
  00189	74		 DB	 116			; 00000074H
  0018a	68		 DB	 104			; 00000068H
  0018b	00		 DB	 0
?getDateFromDayNumber@@YAXHHAAH0@Z ENDP			; getDateFromDayNumber
_TEXT	ENDS
; Function compile flags: /Odtp /RTCsu /ZI
; File C:\Users\gvent\OneDrive\Desktop\KPO\Lab1\Lab1\MonthUtils.cpp
;	COMDAT ?getMonthName@@YA?AV?$basic_string@DU?$char_traits@D@std@@V?$allocator@D@2@@std@@H@Z
_TEXT	SEGMENT
$T2 = -560						; size = 4
_months$ = -356						; size = 336
__$ArrayPad$ = -16					; size = 4
__$EHRec$ = -12						; size = 12
___$ReturnUdt$ = 8					; size = 4
_month$ = 12						; size = 4
?getMonthName@@YA?AV?$basic_string@DU?$char_traits@D@std@@V?$allocator@D@2@@std@@H@Z PROC ; getMonthName, COMDAT

; 8    : string getMonthName(int month) {

  00000	55		 push	 ebp
  00001	8b ec		 mov	 ebp, esp
  00003	6a ff		 push	 -1
  00005	68 00 00 00 00	 push	 __ehhandler$?getMonthName@@YA?AV?$basic_string@DU?$char_traits@D@std@@V?$allocator@D@2@@std@@H@Z
  0000a	64 a1 00 00 00
	00		 mov	 eax, DWORD PTR fs:0
  00010	50		 push	 eax
  00011	81 ec 28 02 00
	00		 sub	 esp, 552		; 00000228H
  00017	53		 push	 ebx
  00018	56		 push	 esi
  00019	57		 push	 edi
  0001a	8d bd 8c fe ff
	ff		 lea	 edi, DWORD PTR [ebp-372]
  00020	b9 5a 00 00 00	 mov	 ecx, 90			; 0000005aH
  00025	b8 cc cc cc cc	 mov	 eax, -858993460		; ccccccccH
  0002a	f3 ab		 rep stosd
  0002c	a1 00 00 00 00	 mov	 eax, DWORD PTR ___security_cookie
  00031	33 c5		 xor	 eax, ebp
  00033	89 45 f0	 mov	 DWORD PTR __$ArrayPad$[ebp], eax
  00036	50		 push	 eax
  00037	8d 45 f4	 lea	 eax, DWORD PTR __$EHRec$[ebp]
  0003a	64 a3 00 00 00
	00		 mov	 DWORD PTR fs:0, eax
  00040	c7 85 d0 fd ff
	ff 00 00 00 00	 mov	 DWORD PTR $T2[ebp], 0
  0004a	b9 00 00 00 00	 mov	 ecx, OFFSET __E5840863_MonthUtils@cpp
  0004f	e8 00 00 00 00	 call	 @__CheckForDebuggerJustMyCode@4
  00054	90		 npad	 1

; 10   :         "", "", "", "", "", "",

  00055	68 00 00 00 00	 push	 OFFSET ??_C@_06BMGEFDJH@?$NP?m?b?$OA?p?$PM@
  0005a	8d 8d 9c fe ff
	ff		 lea	 ecx, DWORD PTR _months$[ebp]
  00060	e8 00 00 00 00	 call	 ??0?$basic_string@DU?$char_traits@D@std@@V?$allocator@D@2@@std@@QAE@QBD@Z ; std::basic_string<char,std::char_traits<char>,std::allocator<char> >::basic_string<char,std::char_traits<char>,std::allocator<char> >
  00065	c7 45 fc 01 00
	00 00		 mov	 DWORD PTR __$EHRec$[ebp+8], 1
  0006c	68 00 00 00 00	 push	 OFFSET ??_C@_07JBGLOLNM@?T?e?b?p?$OA?k?$PM@
  00071	8d 8d b8 fe ff
	ff		 lea	 ecx, DWORD PTR _months$[ebp+28]
  00077	e8 00 00 00 00	 call	 ??0?$basic_string@DU?$char_traits@D@std@@V?$allocator@D@2@@std@@QAE@QBD@Z ; std::basic_string<char,std::char_traits<char>,std::allocator<char> >::basic_string<char,std::char_traits<char>,std::allocator<char> >
  0007c	c6 45 fc 02	 mov	 BYTE PTR __$EHRec$[ebp+8], 2
  00080	68 00 00 00 00	 push	 OFFSET ??_C@_04FAAJLMOP@?L?$OA?p?r@
  00085	8d 8d d4 fe ff
	ff		 lea	 ecx, DWORD PTR _months$[ebp+56]
  0008b	e8 00 00 00 00	 call	 ??0?$basic_string@DU?$char_traits@D@std@@V?$allocator@D@2@@std@@QAE@QBD@Z ; std::basic_string<char,std::char_traits<char>,std::allocator<char> >::basic_string<char,std::char_traits<char>,std::allocator<char> >
  00090	c6 45 fc 03	 mov	 BYTE PTR __$EHRec$[ebp+8], 3
  00094	68 00 00 00 00	 push	 OFFSET ??_C@_06PNLHGGPK@?$MA?o?p?e?k?$PM@
  00099	8d 8d f0 fe ff
	ff		 lea	 ecx, DWORD PTR _months$[ebp+84]
  0009f	e8 00 00 00 00	 call	 ??0?$basic_string@DU?$char_traits@D@std@@V?$allocator@D@2@@std@@QAE@QBD@Z ; std::basic_string<char,std::char_traits<char>,std::allocator<char> >::basic_string<char,std::char_traits<char>,std::allocator<char> >
  000a4	c6 45 fc 04	 mov	 BYTE PTR __$EHRec$[ebp+8], 4
  000a8	68 00 00 00 00	 push	 OFFSET ??_C@_03MEHOOJFI@?L?$OA?i@
  000ad	8d 8d 0c ff ff
	ff		 lea	 ecx, DWORD PTR _months$[ebp+112]
  000b3	e8 00 00 00 00	 call	 ??0?$basic_string@DU?$char_traits@D@std@@V?$allocator@D@2@@std@@QAE@QBD@Z ; std::basic_string<char,std::char_traits<char>,std::allocator<char> >::basic_string<char,std::char_traits<char>,std::allocator<char> >
  000b8	c6 45 fc 05	 mov	 BYTE PTR __$EHRec$[ebp+8], 5
  000bc	68 00 00 00 00	 push	 OFFSET ??_C@_04JPDCCHCO@?H?$PO?m?$PM@
  000c1	8d 8d 28 ff ff
	ff		 lea	 ecx, DWORD PTR _months$[ebp+140]
  000c7	e8 00 00 00 00	 call	 ??0?$basic_string@DU?$char_traits@D@std@@V?$allocator@D@2@@std@@QAE@QBD@Z ; std::basic_string<char,std::char_traits<char>,std::allocator<char> >::basic_string<char,std::char_traits<char>,std::allocator<char> >
  000cc	c6 45 fc 06	 mov	 BYTE PTR __$EHRec$[ebp+8], 6

; 11   :         "", "", "", "", "", ""

  000d0	68 00 00 00 00	 push	 OFFSET ??_C@_04JLLPFLJM@?H?$PO?k?$PM@
  000d5	8d 8d 44 ff ff
	ff		 lea	 ecx, DWORD PTR _months$[ebp+168]
  000db	e8 00 00 00 00	 call	 ??0?$basic_string@DU?$char_traits@D@std@@V?$allocator@D@2@@std@@QAE@QBD@Z ; std::basic_string<char,std::char_traits<char>,std::allocator<char> >::basic_string<char,std::char_traits<char>,std::allocator<char> >
  000e0	c6 45 fc 07	 mov	 BYTE PTR __$EHRec$[ebp+8], 7
  000e4	68 00 00 00 00	 push	 OFFSET ??_C@_06JMCJJLBN@?$MA?b?c?s?q?r@
  000e9	8d 8d 60 ff ff
	ff		 lea	 ecx, DWORD PTR _months$[ebp+196]
  000ef	e8 00 00 00 00	 call	 ??0?$basic_string@DU?$char_traits@D@std@@V?$allocator@D@2@@std@@QAE@QBD@Z ; std::basic_string<char,std::char_traits<char>,std::allocator<char> >::basic_string<char,std::char_traits<char>,std::allocator<char> >
  000f4	c6 45 fc 08	 mov	 BYTE PTR __$EHRec$[ebp+8], 8
  000f8	68 00 00 00 00	 push	 OFFSET ??_C@_08ECPNNGFL@?Q?e?m?r?$PP?a?p?$PM@
  000fd	8d 8d 7c ff ff
	ff		 lea	 ecx, DWORD PTR _months$[ebp+224]
  00103	e8 00 00 00 00	 call	 ??0?$basic_string@DU?$char_traits@D@std@@V?$allocator@D@2@@std@@QAE@QBD@Z ; std::basic_string<char,std::char_traits<char>,std::allocator<char> >::basic_string<char,std::char_traits<char>,std::allocator<char> >
  00108	c6 45 fc 09	 mov	 BYTE PTR __$EHRec$[ebp+8], 9
  0010c	68 00 00 00 00	 push	 OFFSET ??_C@_07KDBBAIGI@?N?j?r?$PP?a?p?$PM@
  00111	8d 4d 98	 lea	 ecx, DWORD PTR _months$[ebp+252]
  00114	e8 00 00 00 00	 call	 ??0?$basic_string@DU?$char_traits@D@std@@V?$allocator@D@2@@std@@QAE@QBD@Z ; std::basic_string<char,std::char_traits<char>,std::allocator<char> >::basic_string<char,std::char_traits<char>,std::allocator<char> >
  00119	c6 45 fc 0a	 mov	 BYTE PTR __$EHRec$[ebp+8], 10 ; 0000000aH
  0011d	68 00 00 00 00	 push	 OFFSET ??_C@_06EKHNJIII@?M?n?$PP?a?p?$PM@
  00122	8d 4d b4	 lea	 ecx, DWORD PTR _months$[ebp+280]
  00125	e8 00 00 00 00	 call	 ??0?$basic_string@DU?$char_traits@D@std@@V?$allocator@D@2@@std@@QAE@QBD@Z ; std::basic_string<char,std::char_traits<char>,std::allocator<char> >::basic_string<char,std::char_traits<char>,std::allocator<char> >
  0012a	c6 45 fc 0b	 mov	 BYTE PTR __$EHRec$[ebp+8], 11 ; 0000000bH
  0012e	68 00 00 00 00	 push	 OFFSET ??_C@_07MJKMOEOM@?D?e?j?$OA?a?p?$PM@
  00133	8d 4d d0	 lea	 ecx, DWORD PTR _months$[ebp+308]
  00136	e8 00 00 00 00	 call	 ??0?$basic_string@DU?$char_traits@D@std@@V?$allocator@D@2@@std@@QAE@QBD@Z ; std::basic_string<char,std::char_traits<char>,std::allocator<char> >::basic_string<char,std::char_traits<char>,std::allocator<char> >
  0013b	90		 npad	 1

; 9    :     const string months[] = {

  0013c	c7 45 fc 0c 00
	00 00		 mov	 DWORD PTR __$EHRec$[ebp+8], 12 ; 0000000cH

; 12   :     };
; 13   : 
; 14   :     if (month < 1 || month > 12) {

  00143	83 7d 0c 01	 cmp	 DWORD PTR _month$[ebp], 1
  00147	7c 06		 jl	 SHORT $LN3@getMonthNa
  00149	83 7d 0c 0c	 cmp	 DWORD PTR _month$[ebp], 12 ; 0000000cH
  0014d	7e 3b		 jle	 SHORT $LN2@getMonthNa
$LN3@getMonthNa:

; 15   :         return "  ";

  0014f	68 00 00 00 00	 push	 OFFSET ??_C@_0BG@HCILLIAJ@?M?e?b?e?p?m?$PL?i?5?m?n?l?e?p?5?l?e?q?$PP?v?$OA@
  00154	8b 4d 08	 mov	 ecx, DWORD PTR ___$ReturnUdt$[ebp]
  00157	e8 00 00 00 00	 call	 ??0?$basic_string@DU?$char_traits@D@std@@V?$allocator@D@2@@std@@QAE@QBD@Z ; std::basic_string<char,std::char_traits<char>,std::allocator<char> >::basic_string<char,std::char_traits<char>,std::allocator<char> >
  0015c	8b 85 d0 fd ff
	ff		 mov	 eax, DWORD PTR $T2[ebp]
  00162	83 c8 01	 or	 eax, 1
  00165	89 85 d0 fd ff
	ff		 mov	 DWORD PTR $T2[ebp], eax
  0016b	c6 45 fc 00	 mov	 BYTE PTR __$EHRec$[ebp+8], 0
  0016f	68 00 00 00 00	 push	 OFFSET ??1?$basic_string@DU?$char_traits@D@std@@V?$allocator@D@2@@std@@QAE@XZ ; std::basic_string<char,std::char_traits<char>,std::allocator<char> >::~basic_string<char,std::char_traits<char>,std::allocator<char> >
  00174	6a 0c		 push	 12			; 0000000cH
  00176	6a 1c		 push	 28			; 0000001cH
  00178	8d 8d 9c fe ff
	ff		 lea	 ecx, DWORD PTR _months$[ebp]
  0017e	51		 push	 ecx
  0017f	e8 00 00 00 00	 call	 ??_M@YGXPAXIIP6EX0@Z@Z
  00184	90		 npad	 1
  00185	8b 45 08	 mov	 eax, DWORD PTR ___$ReturnUdt$[ebp]
  00188	eb 45		 jmp	 SHORT $LN1@getMonthNa
$LN2@getMonthNa:

; 16   :     }
; 17   :     return months[month-1];

  0018a	8b 45 0c	 mov	 eax, DWORD PTR _month$[ebp]
  0018d	83 e8 01	 sub	 eax, 1
  00190	6b c8 1c	 imul	 ecx, eax, 28
  00193	8d 94 0d 9c fe
	ff ff		 lea	 edx, DWORD PTR _months$[ebp+ecx]
  0019a	52		 push	 edx
  0019b	8b 4d 08	 mov	 ecx, DWORD PTR ___$ReturnUdt$[ebp]
  0019e	e8 00 00 00 00	 call	 ??0?$basic_string@DU?$char_traits@D@std@@V?$allocator@D@2@@std@@QAE@ABV01@@Z ; std::basic_string<char,std::char_traits<char>,std::allocator<char> >::basic_string<char,std::char_traits<char>,std::allocator<char> >
  001a3	8b 85 d0 fd ff
	ff		 mov	 eax, DWORD PTR $T2[ebp]
  001a9	83 c8 01	 or	 eax, 1
  001ac	89 85 d0 fd ff
	ff		 mov	 DWORD PTR $T2[ebp], eax
  001b2	c6 45 fc 00	 mov	 BYTE PTR __$EHRec$[ebp+8], 0
  001b6	68 00 00 00 00	 push	 OFFSET ??1?$basic_string@DU?$char_traits@D@std@@V?$allocator@D@2@@std@@QAE@XZ ; std::basic_string<char,std::char_traits<char>,std::allocator<char> >::~basic_string<char,std::char_traits<char>,std::allocator<char> >
  001bb	6a 0c		 push	 12			; 0000000cH
  001bd	6a 1c		 push	 28			; 0000001cH
  001bf	8d 8d 9c fe ff
	ff		 lea	 ecx, DWORD PTR _months$[ebp]
  001c5	51		 push	 ecx
  001c6	e8 00 00 00 00	 call	 ??_M@YGXPAXIIP6EX0@Z@Z
  001cb	90		 npad	 1
  001cc	8b 45 08	 mov	 eax, DWORD PTR ___$ReturnUdt$[ebp]
$LN1@getMonthNa:

; 18   : }

  001cf	52		 push	 edx
  001d0	8b cd		 mov	 ecx, ebp
  001d2	50		 push	 eax
  001d3	8d 15 00 00 00
	00		 lea	 edx, DWORD PTR $LN23@getMonthNa
  001d9	e8 00 00 00 00	 call	 @_RTC_CheckStackVars@8
  001de	58		 pop	 eax
  001df	5a		 pop	 edx
  001e0	8b 4d f4	 mov	 ecx, DWORD PTR __$EHRec$[ebp]
  001e3	64 89 0d 00 00
	00 00		 mov	 DWORD PTR fs:0, ecx
  001ea	59		 pop	 ecx
  001eb	5f		 pop	 edi
  001ec	5e		 pop	 esi
  001ed	5b		 pop	 ebx
  001ee	8b 4d f0	 mov	 ecx, DWORD PTR __$ArrayPad$[ebp]
  001f1	33 cd		 xor	 ecx, ebp
  001f3	e8 00 00 00 00	 call	 @__security_check_cookie@4
  001f8	81 c4 34 02 00
	00		 add	 esp, 564		; 00000234H
  001fe	3b ec		 cmp	 ebp, esp
  00200	e8 00 00 00 00	 call	 __RTC_CheckEsp
  00205	8b e5		 mov	 esp, ebp
  00207	5d		 pop	 ebp
  00208	c3		 ret	 0
  00209	0f 1f 00	 npad	 3
$LN23@getMonthNa:
  0020c	01 00 00 00	 DD	 1
  00210	00 00 00 00	 DD	 $LN22@getMonthNa
$LN22@getMonthNa:
  00214	9c fe ff ff	 DD	 -356			; fffffe9cH
  00218	50 01 00 00	 DD	 336			; 00000150H
  0021c	00 00 00 00	 DD	 $LN20@getMonthNa
$LN20@getMonthNa:
  00220	6d		 DB	 109			; 0000006dH
  00221	6f		 DB	 111			; 0000006fH
  00222	6e		 DB	 110			; 0000006eH
  00223	74		 DB	 116			; 00000074H
  00224	68		 DB	 104			; 00000068H
  00225	73		 DB	 115			; 00000073H
  00226	00		 DB	 0
_TEXT	ENDS
;	COMDAT text$x
text$x	SEGMENT
__unwindfunclet$?getMonthName@@YA?AV?$basic_string@DU?$char_traits@D@std@@V?$allocator@D@2@@std@@H@Z$0:
  00000	8d 8d 9c fe ff
	ff		 lea	 ecx, DWORD PTR _months$[ebp]
  00006	e9 00 00 00 00	 jmp	 ??1?$basic_string@DU?$char_traits@D@std@@V?$allocator@D@2@@std@@QAE@XZ ; std::basic_string<char,std::char_traits<char>,std::allocator<char> >::~basic_string<char,std::char_traits<char>,std::allocator<char> >
__unwindfunclet$?getMonthName@@YA?AV?$basic_string@DU?$char_traits@D@std@@V?$allocator@D@2@@std@@H@Z$1:
  0000b	8d 8d b8 fe ff
	ff		 lea	 ecx, DWORD PTR _months$[ebp+28]
  00011	e9 00 00 00 00	 jmp	 ??1?$basic_string@DU?$char_traits@D@std@@V?$allocator@D@2@@std@@QAE@XZ ; std::basic_string<char,std::char_traits<char>,std::allocator<char> >::~basic_string<char,std::char_traits<char>,std::allocator<char> >
__unwindfunclet$?getMonthName@@YA?AV?$basic_string@DU?$char_traits@D@std@@V?$allocator@D@2@@std@@H@Z$2:
  00016	8d 8d d4 fe ff
	ff		 lea	 ecx, DWORD PTR _months$[ebp+56]
  0001c	e9 00 00 00 00	 jmp	 ??1?$basic_string@DU?$char_traits@D@std@@V?$allocator@D@2@@std@@QAE@XZ ; std::basic_string<char,std::char_traits<char>,std::allocator<char> >::~basic_string<char,std::char_traits<char>,std::allocator<char> >
__unwindfunclet$?getMonthName@@YA?AV?$basic_string@DU?$char_traits@D@std@@V?$allocator@D@2@@std@@H@Z$3:
  00021	8d 8d f0 fe ff
	ff		 lea	 ecx, DWORD PTR _months$[ebp+84]
  00027	e9 00 00 00 00	 jmp	 ??1?$basic_string@DU?$char_traits@D@std@@V?$allocator@D@2@@std@@QAE@XZ ; std::basic_string<char,std::char_traits<char>,std::allocator<char> >::~basic_string<char,std::char_traits<char>,std::allocator<char> >
__unwindfunclet$?getMonthName@@YA?AV?$basic_string@DU?$char_traits@D@std@@V?$allocator@D@2@@std@@H@Z$4:
  0002c	8d 8d 0c ff ff
	ff		 lea	 ecx, DWORD PTR _months$[ebp+112]
  00032	e9 00 00 00 00	 jmp	 ??1?$basic_string@DU?$char_traits@D@std@@V?$allocator@D@2@@std@@QAE@XZ ; std::basic_string<char,std::char_traits<char>,std::allocator<char> >::~basic_string<char,std::char_traits<char>,std::allocator<char> >
__unwindfunclet$?getMonthName@@YA?AV?$basic_string@DU?$char_traits@D@std@@V?$allocator@D@2@@std@@H@Z$5:
  00037	8d 8d 28 ff ff
	ff		 lea	 ecx, DWORD PTR _months$[ebp+140]
  0003d	e9 00 00 00 00	 jmp	 ??1?$basic_string@DU?$char_traits@D@std@@V?$allocator@D@2@@std@@QAE@XZ ; std::basic_string<char,std::char_traits<char>,std::allocator<char> >::~basic_string<char,std::char_traits<char>,std::allocator<char> >
__unwindfunclet$?getMonthName@@YA?AV?$basic_string@DU?$char_traits@D@std@@V?$allocator@D@2@@std@@H@Z$6:
  00042	8d 8d 44 ff ff
	ff		 lea	 ecx, DWORD PTR _months$[ebp+168]
  00048	e9 00 00 00 00	 jmp	 ??1?$basic_string@DU?$char_traits@D@std@@V?$allocator@D@2@@std@@QAE@XZ ; std::basic_string<char,std::char_traits<char>,std::allocator<char> >::~basic_string<char,std::char_traits<char>,std::allocator<char> >
__unwindfunclet$?getMonthName@@YA?AV?$basic_string@DU?$char_traits@D@std@@V?$allocator@D@2@@std@@H@Z$7:
  0004d	8d 8d 60 ff ff
	ff		 lea	 ecx, DWORD PTR _months$[ebp+196]
  00053	e9 00 00 00 00	 jmp	 ??1?$basic_string@DU?$char_traits@D@std@@V?$allocator@D@2@@std@@QAE@XZ ; std::basic_string<char,std::char_traits<char>,std::allocator<char> >::~basic_string<char,std::char_traits<char>,std::allocator<char> >
__unwindfunclet$?getMonthName@@YA?AV?$basic_string@DU?$char_traits@D@std@@V?$allocator@D@2@@std@@H@Z$8:
  00058	8d 8d 7c ff ff
	ff		 lea	 ecx, DWORD PTR _months$[ebp+224]
  0005e	e9 00 00 00 00	 jmp	 ??1?$basic_string@DU?$char_traits@D@std@@V?$allocator@D@2@@std@@QAE@XZ ; std::basic_string<char,std::char_traits<char>,std::allocator<char> >::~basic_string<char,std::char_traits<char>,std::allocator<char> >
__unwindfunclet$?getMonthName@@YA?AV?$basic_string@DU?$char_traits@D@std@@V?$allocator@D@2@@std@@H@Z$9:
  00063	8d 4d 98	 lea	 ecx, DWORD PTR _months$[ebp+252]
  00066	e9 00 00 00 00	 jmp	 ??1?$basic_string@DU?$char_traits@D@std@@V?$allocator@D@2@@std@@QAE@XZ ; std::basic_string<char,std::char_traits<char>,std::allocator<char> >::~basic_string<char,std::char_traits<char>,std::allocator<char> >
__unwindfunclet$?getMonthName@@YA?AV?$basic_string@DU?$char_traits@D@std@@V?$allocator@D@2@@std@@H@Z$10:
  0006b	8d 4d b4	 lea	 ecx, DWORD PTR _months$[ebp+280]
  0006e	e9 00 00 00 00	 jmp	 ??1?$basic_string@DU?$char_traits@D@std@@V?$allocator@D@2@@std@@QAE@XZ ; std::basic_string<char,std::char_traits<char>,std::allocator<char> >::~basic_string<char,std::char_traits<char>,std::allocator<char> >
__unwindfunclet$?getMonthName@@YA?AV?$basic_string@DU?$char_traits@D@std@@V?$allocator@D@2@@std@@H@Z$12:
  00073	68 00 00 00 00	 push	 OFFSET ??1?$basic_string@DU?$char_traits@D@std@@V?$allocator@D@2@@std@@QAE@XZ ; std::basic_string<char,std::char_traits<char>,std::allocator<char> >::~basic_string<char,std::char_traits<char>,std::allocator<char> >
  00078	6a 0c		 push	 12			; 0000000cH
  0007a	6a 1c		 push	 28			; 0000001cH
  0007c	8d 85 9c fe ff
	ff		 lea	 eax, DWORD PTR _months$[ebp]
  00082	50		 push	 eax
  00083	e8 00 00 00 00	 call	 ??_M@YGXPAXIIP6EX0@Z@Z
  00088	c3		 ret	 0
__unwindfunclet$?getMonthName@@YA?AV?$basic_string@DU?$char_traits@D@std@@V?$allocator@D@2@@std@@H@Z$13:
  00089	8b 85 d0 fd ff
	ff		 mov	 eax, DWORD PTR $T2[ebp]
  0008f	83 e0 01	 and	 eax, 1
  00092	0f 84 0f 00 00
	00		 je	 $LN19@getMonthNa
  00098	83 a5 d0 fd ff
	ff fe		 and	 DWORD PTR $T2[ebp], -2	; fffffffeH
  0009f	8b 4d 08	 mov	 ecx, DWORD PTR ___$ReturnUdt$[ebp]
  000a2	e9 00 00 00 00	 jmp	 ??1?$basic_string@DU?$char_traits@D@std@@V?$allocator@D@2@@std@@QAE@XZ ; std::basic_string<char,std::char_traits<char>,std::allocator<char> >::~basic_string<char,std::char_traits<char>,std::allocator<char> >
$LN19@getMonthNa:
  000a7	c3		 ret	 0
  000a8	cc		 int	 3
  000a9	cc		 int	 3
  000aa	cc		 int	 3
  000ab	cc		 int	 3
  000ac	cc		 int	 3
__ehhandler$?getMonthName@@YA?AV?$basic_string@DU?$char_traits@D@std@@V?$allocator@D@2@@std@@H@Z:
  000ad	90		 npad	 1
  000ae	90		 npad	 1
  000af	8b 54 24 08	 mov	 edx, DWORD PTR [esp+8]
  000b3	8d 42 0c	 lea	 eax, DWORD PTR [edx+12]
  000b6	8b 8a c8 fd ff
	ff		 mov	 ecx, DWORD PTR [edx-568]
  000bc	33 c8		 xor	 ecx, eax
  000be	e8 00 00 00 00	 call	 @__security_check_cookie@4
  000c3	8b 4a fc	 mov	 ecx, DWORD PTR [edx-4]
  000c6	33 c8		 xor	 ecx, eax
  000c8	e8 00 00 00 00	 call	 @__security_check_cookie@4
  000cd	b8 00 00 00 00	 mov	 eax, OFFSET __ehfuncinfo$?getMonthName@@YA?AV?$basic_string@DU?$char_traits@D@std@@V?$allocator@D@2@@std@@H@Z
  000d2	e9 00 00 00 00	 jmp	 ___CxxFrameHandler3
text$x	ENDS
?getMonthName@@YA?AV?$basic_string@DU?$char_traits@D@std@@V?$allocator@D@2@@std@@H@Z ENDP ; getMonthName
; Function compile flags: /Odtp /RTCsu /ZI
;	COMDAT ??1?$_Compressed_pair@V?$allocator@D@std@@V?$_String_val@U?$_Simple_types@D@std@@@2@$00@std@@QAE@XZ
_TEXT	SEGMENT
_this$ = -8						; size = 4
??1?$_Compressed_pair@V?$allocator@D@std@@V?$_String_val@U?$_Simple_types@D@std@@@2@$00@std@@QAE@XZ PROC ; std::_Compressed_pair<std::allocator<char>,std::_String_val<std::_Simple_types<char> >,1>::~_Compressed_pair<std::allocator<char>,std::_String_val<std::_Simple_types<char> >,1>, COMDAT
; _this$ = ecx
  00000	55		 push	 ebp
  00001	8b ec		 mov	 ebp, esp
  00003	81 ec cc 00 00
	00		 sub	 esp, 204		; 000000ccH
  00009	53		 push	 ebx
  0000a	56		 push	 esi
  0000b	57		 push	 edi
  0000c	51		 push	 ecx
  0000d	8d 7d f4	 lea	 edi, DWORD PTR [ebp-12]
  00010	b9 03 00 00 00	 mov	 ecx, 3
  00015	b8 cc cc cc cc	 mov	 eax, -858993460		; ccccccccH
  0001a	f3 ab		 rep stosd
  0001c	59		 pop	 ecx
  0001d	89 4d f8	 mov	 DWORD PTR _this$[ebp], ecx
  00020	8b 4d f8	 mov	 ecx, DWORD PTR _this$[ebp]
  00023	e8 00 00 00 00	 call	 ??1?$_String_val@U?$_Simple_types@D@std@@@std@@QAE@XZ
  00028	90		 npad	 1
  00029	5f		 pop	 edi
  0002a	5e		 pop	 esi
  0002b	5b		 pop	 ebx
  0002c	81 c4 cc 00 00
	00		 add	 esp, 204		; 000000ccH
  00032	3b ec		 cmp	 ebp, esp
  00034	e8 00 00 00 00	 call	 __RTC_CheckEsp
  00039	8b e5		 mov	 esp, ebp
  0003b	5d		 pop	 ebp
  0003c	c3		 ret	 0
??1?$_Compressed_pair@V?$allocator@D@std@@V?$_String_val@U?$_Simple_types@D@std@@@2@$00@std@@QAE@XZ ENDP ; std::_Compressed_pair<std::allocator<char>,std::_String_val<std::_Simple_types<char> >,1>::~_Compressed_pair<std::allocator<char>,std::_String_val<std::_Simple_types<char> >,1>
_TEXT	ENDS
; Function compile flags: /Odtp /RTCsu /ZI
; File C:\Program Files\Microsoft Visual Studio\2022\Community\VC\Tools\MSVC\14.42.34433\include\xmemory
;	COMDAT ?_Get_first@?$_Compressed_pair@V?$allocator@D@std@@V?$_String_val@U?$_Simple_types@D@std@@@2@$00@std@@QBEABV?$allocator@D@2@XZ
_TEXT	SEGMENT
_this$ = -8						; size = 4
?_Get_first@?$_Compressed_pair@V?$allocator@D@std@@V?$_String_val@U?$_Simple_types@D@std@@@2@$00@std@@QBEABV?$allocator@D@2@XZ PROC ; std::_Compressed_pair<std::allocator<char>,std::_String_val<std::_Simple_types<char> >,1>::_Get_first, COMDAT
; _this$ = ecx

; 1506 :     constexpr const _Ty1& _Get_first() const noexcept {

  00000	55		 push	 ebp
  00001	8b ec		 mov	 ebp, esp
  00003	81 ec cc 00 00
	00		 sub	 esp, 204		; 000000ccH
  00009	53		 push	 ebx
  0000a	56		 push	 esi
  0000b	57		 push	 edi
  0000c	51		 push	 ecx
  0000d	8d 7d f4	 lea	 edi, DWORD PTR [ebp-12]
  00010	b9 03 00 00 00	 mov	 ecx, 3
  00015	b8 cc cc cc cc	 mov	 eax, -858993460		; ccccccccH
  0001a	f3 ab		 rep stosd
  0001c	59		 pop	 ecx
  0001d	89 4d f8	 mov	 DWORD PTR _this$[ebp], ecx
  00020	b9 00 00 00 00	 mov	 ecx, OFFSET __03BD3355_xmemory
  00025	e8 00 00 00 00	 call	 @__CheckForDebuggerJustMyCode@4
  0002a	90		 npad	 1

; 1507 :         return *this;

  0002b	8b 45 f8	 mov	 eax, DWORD PTR _this$[ebp]

; 1508 :     }

  0002e	5f		 pop	 edi
  0002f	5e		 pop	 esi
  00030	5b		 pop	 ebx
  00031	81 c4 cc 00 00
	00		 add	 esp, 204		; 000000ccH
  00037	3b ec		 cmp	 ebp, esp
  00039	e8 00 00 00 00	 call	 __RTC_CheckEsp
  0003e	8b e5		 mov	 esp, ebp
  00040	5d		 pop	 ebp
  00041	c3		 ret	 0
?_Get_first@?$_Compressed_pair@V?$allocator@D@std@@V?$_String_val@U?$_Simple_types@D@std@@@2@$00@std@@QBEABV?$allocator@D@2@XZ ENDP ; std::_Compressed_pair<std::allocator<char>,std::_String_val<std::_Simple_types<char> >,1>::_Get_first
_TEXT	ENDS
; Function compile flags: /Odtp /RTCsu /ZI
; File C:\Program Files\Microsoft Visual Studio\2022\Community\VC\Tools\MSVC\14.42.34433\include\xmemory
;	COMDAT ?_Get_first@?$_Compressed_pair@V?$allocator@D@std@@V?$_String_val@U?$_Simple_types@D@std@@@2@$00@std@@QAEAAV?$allocator@D@2@XZ
_TEXT	SEGMENT
_this$ = -8						; size = 4
?_Get_first@?$_Compressed_pair@V?$allocator@D@std@@V?$_String_val@U?$_Simple_types@D@std@@@2@$00@std@@QAEAAV?$allocator@D@2@XZ PROC ; std::_Compressed_pair<std::allocator<char>,std::_String_val<std::_Simple_types<char> >,1>::_Get_first, COMDAT
; _this$ = ecx

; 1502 :     constexpr _Ty1& _Get_first() noexcept {

  00000	55		 push	 ebp
  00001	8b ec		 mov	 ebp, esp
  00003	81 ec cc 00 00
	00		 sub	 esp, 204		; 000000ccH
  00009	53		 push	 ebx
  0000a	56		 push	 esi
  0000b	57		 push	 edi
  0000c	51		 push	 ecx
  0000d	8d 7d f4	 lea	 edi, DWORD PTR [ebp-12]
  00010	b9 03 00 00 00	 mov	 ecx, 3
  00015	b8 cc cc cc cc	 mov	 eax, -858993460		; ccccccccH
  0001a	f3 ab		 rep stosd
  0001c	59		 pop	 ecx
  0001d	89 4d f8	 mov	 DWORD PTR _this$[ebp], ecx
  00020	b9 00 00 00 00	 mov	 ecx, OFFSET __03BD3355_xmemory
  00025	e8 00 00 00 00	 call	 @__CheckForDebuggerJustMyCode@4
  0002a	90		 npad	 1

; 1503 :         return *this;

  0002b	8b 45 f8	 mov	 eax, DWORD PTR _this$[ebp]

; 1504 :     }

  0002e	5f		 pop	 edi
  0002f	5e		 pop	 esi
  00030	5b		 pop	 ebx
  00031	81 c4 cc 00 00
	00		 add	 esp, 204		; 000000ccH
  00037	3b ec		 cmp	 ebp, esp
  00039	e8 00 00 00 00	 call	 __RTC_CheckEsp
  0003e	8b e5		 mov	 esp, ebp
  00040	5d		 pop	 ebp
  00041	c3		 ret	 0
?_Get_first@?$_Compressed_pair@V?$allocator@D@std@@V?$_String_val@U?$_Simple_types@D@std@@@2@$00@std@@QAEAAV?$allocator@D@2@XZ ENDP ; std::_Compressed_pair<std::allocator<char>,std::_String_val<std::_Simple_types<char> >,1>::_Get_first
_TEXT	ENDS
; Function compile flags: /Odtp /RTCsu /ZI
; File C:\Program Files\Microsoft Visual Studio\2022\Community\VC\Tools\MSVC\14.42.34433\include\xstring
;	COMDAT ?_Getal@?$basic_string@DU?$char_traits@D@std@@V?$allocator@D@2@@std@@ABEABV?$allocator@D@2@XZ
_TEXT	SEGMENT
_this$ = -8						; size = 4
?_Getal@?$basic_string@DU?$char_traits@D@std@@V?$allocator@D@2@@std@@ABEABV?$allocator@D@2@XZ PROC ; std::basic_string<char,std::char_traits<char>,std::allocator<char> >::_Getal, COMDAT
; _this$ = ecx

; 3085 :     _CONSTEXPR20 const _Alty& _Getal() const noexcept {

  00000	55		 push	 ebp
  00001	8b ec		 mov	 ebp, esp
  00003	81 ec cc 00 00
	00		 sub	 esp, 204		; 000000ccH
  00009	53		 push	 ebx
  0000a	56		 push	 esi
  0000b	57		 push	 edi
  0000c	51		 push	 ecx
  0000d	8d 7d f4	 lea	 edi, DWORD PTR [ebp-12]
  00010	b9 03 00 00 00	 mov	 ecx, 3
  00015	b8 cc cc cc cc	 mov	 eax, -858993460		; ccccccccH
  0001a	f3 ab		 rep stosd
  0001c	59		 pop	 ecx
  0001d	89 4d f8	 mov	 DWORD PTR _this$[ebp], ecx
  00020	b9 00 00 00 00	 mov	 ecx, OFFSET __776EB5C9_xstring
  00025	e8 00 00 00 00	 call	 @__CheckForDebuggerJustMyCode@4
  0002a	90		 npad	 1

; 3086 :         return _Mypair._Get_first();

  0002b	8b 4d f8	 mov	 ecx, DWORD PTR _this$[ebp]
  0002e	e8 00 00 00 00	 call	 ?_Get_first@?$_Compressed_pair@V?$allocator@D@std@@V?$_String_val@U?$_Simple_types@D@std@@@2@$00@std@@QBEABV?$allocator@D@2@XZ ; std::_Compressed_pair<std::allocator<char>,std::_String_val<std::_Simple_types<char> >,1>::_Get_first

; 3087 :     }

  00033	5f		 pop	 edi
  00034	5e		 pop	 esi
  00035	5b		 pop	 ebx
  00036	81 c4 cc 00 00
	00		 add	 esp, 204		; 000000ccH
  0003c	3b ec		 cmp	 ebp, esp
  0003e	e8 00 00 00 00	 call	 __RTC_CheckEsp
  00043	8b e5		 mov	 esp, ebp
  00045	5d		 pop	 ebp
  00046	c3		 ret	 0
?_Getal@?$basic_string@DU?$char_traits@D@std@@V?$allocator@D@2@@std@@ABEABV?$allocator@D@2@XZ ENDP ; std::basic_string<char,std::char_traits<char>,std::allocator<char> >::_Getal
_TEXT	ENDS
; Function compile flags: /Odtp /RTCsu /ZI
; File C:\Program Files\Microsoft Visual Studio\2022\Community\VC\Tools\MSVC\14.42.34433\include\xstring
;	COMDAT ?_Getal@?$basic_string@DU?$char_traits@D@std@@V?$allocator@D@2@@std@@AAEAAV?$allocator@D@2@XZ
_TEXT	SEGMENT
_this$ = -8						; size = 4
?_Getal@?$basic_string@DU?$char_traits@D@std@@V?$allocator@D@2@@std@@AAEAAV?$allocator@D@2@XZ PROC ; std::basic_string<char,std::char_traits<char>,std::allocator<char> >::_Getal, COMDAT
; _this$ = ecx

; 3081 :     _CONSTEXPR20 _Alty& _Getal() noexcept {

  00000	55		 push	 ebp
  00001	8b ec		 mov	 ebp, esp
  00003	81 ec cc 00 00
	00		 sub	 esp, 204		; 000000ccH
  00009	53		 push	 ebx
  0000a	56		 push	 esi
  0000b	57		 push	 edi
  0000c	51		 push	 ecx
  0000d	8d 7d f4	 lea	 edi, DWORD PTR [ebp-12]
  00010	b9 03 00 00 00	 mov	 ecx, 3
  00015	b8 cc cc cc cc	 mov	 eax, -858993460		; ccccccccH
  0001a	f3 ab		 rep stosd
  0001c	59		 pop	 ecx
  0001d	89 4d f8	 mov	 DWORD PTR _this$[ebp], ecx
  00020	b9 00 00 00 00	 mov	 ecx, OFFSET __776EB5C9_xstring
  00025	e8 00 00 00 00	 call	 @__CheckForDebuggerJustMyCode@4
  0002a	90		 npad	 1

; 3082 :         return _Mypair._Get_first();

  0002b	8b 4d f8	 mov	 ecx, DWORD PTR _this$[ebp]
  0002e	e8 00 00 00 00	 call	 ?_Get_first@?$_Compressed_pair@V?$allocator@D@std@@V?$_String_val@U?$_Simple_types@D@std@@@2@$00@std@@QAEAAV?$allocator@D@2@XZ ; std::_Compressed_pair<std::allocator<char>,std::_String_val<std::_Simple_types<char> >,1>::_Get_first

; 3083 :     }

  00033	5f		 pop	 edi
  00034	5e		 pop	 esi
  00035	5b		 pop	 ebx
  00036	81 c4 cc 00 00
	00		 add	 esp, 204		; 000000ccH
  0003c	3b ec		 cmp	 ebp, esp
  0003e	e8 00 00 00 00	 call	 __RTC_CheckEsp
  00043	8b e5		 mov	 esp, ebp
  00045	5d		 pop	 ebp
  00046	c3		 ret	 0
?_Getal@?$basic_string@DU?$char_traits@D@std@@V?$allocator@D@2@@std@@AAEAAV?$allocator@D@2@XZ ENDP ; std::basic_string<char,std::char_traits<char>,std::allocator<char> >::_Getal
_TEXT	ENDS
; Function compile flags: /Odtp /RTCsu /ZI
; File C:\Program Files\Microsoft Visual Studio\2022\Community\VC\Tools\MSVC\14.42.34433\include\xstring
;	COMDAT ?_Tidy_deallocate@?$basic_string@DU?$char_traits@D@std@@V?$allocator@D@2@@std@@AAEXXZ
_TEXT	SEGMENT
$T1 = -233						; size = 1
__Al$2 = -32						; size = 4
__My_data$ = -20					; size = 4
_this$ = -8						; size = 4
?_Tidy_deallocate@?$basic_string@DU?$char_traits@D@std@@V?$allocator@D@2@@std@@AAEXXZ PROC ; std::basic_string<char,std::char_traits<char>,std::allocator<char> >::_Tidy_deallocate, COMDAT
; _this$ = ecx

; 3055 :     _CONSTEXPR20 void _Tidy_deallocate() noexcept { // initialize buffer, deallocating any storage

  00000	55		 push	 ebp
  00001	8b ec		 mov	 ebp, esp
  00003	81 ec f0 00 00
	00		 sub	 esp, 240		; 000000f0H
  00009	53		 push	 ebx
  0000a	56		 push	 esi
  0000b	57		 push	 edi
  0000c	51		 push	 ecx
  0000d	8d 7d d0	 lea	 edi, DWORD PTR [ebp-48]
  00010	b9 0c 00 00 00	 mov	 ecx, 12			; 0000000cH
  00015	b8 cc cc cc cc	 mov	 eax, -858993460		; ccccccccH
  0001a	f3 ab		 rep stosd
  0001c	59		 pop	 ecx
  0001d	89 4d f8	 mov	 DWORD PTR _this$[ebp], ecx
  00020	b9 00 00 00 00	 mov	 ecx, OFFSET __776EB5C9_xstring
  00025	e8 00 00 00 00	 call	 @__CheckForDebuggerJustMyCode@4
  0002a	90		 npad	 1

; 3056 :         auto& _My_data = _Mypair._Myval2;

  0002b	8b 45 f8	 mov	 eax, DWORD PTR _this$[ebp]
  0002e	89 45 ec	 mov	 DWORD PTR __My_data$[ebp], eax

; 3057 :         _My_data._Orphan_all();

  00031	8b 4d ec	 mov	 ecx, DWORD PTR __My_data$[ebp]
  00034	e8 00 00 00 00	 call	 ?_Orphan_all@_Container_base12@std@@QAEXXZ ; std::_Container_base12::_Orphan_all
  00039	90		 npad	 1

; 3058 :         if (_My_data._Large_mode_engaged()) {

  0003a	8b 4d ec	 mov	 ecx, DWORD PTR __My_data$[ebp]
  0003d	e8 00 00 00 00	 call	 ?_Large_mode_engaged@?$_String_val@U?$_Simple_types@D@std@@@std@@QBE_NXZ ; std::_String_val<std::_Simple_types<char> >::_Large_mode_engaged
  00042	0f b6 c0	 movzx	 eax, al
  00045	85 c0		 test	 eax, eax
  00047	74 31		 je	 SHORT $LN2@Tidy_deall

; 3059 :             _ASAN_STRING_REMOVE(*this);
; 3060 :             auto& _Al = _Getal();

  00049	8b 4d f8	 mov	 ecx, DWORD PTR _this$[ebp]
  0004c	e8 00 00 00 00	 call	 ?_Getal@?$basic_string@DU?$char_traits@D@std@@V?$allocator@D@2@@std@@AAEAAV?$allocator@D@2@XZ ; std::basic_string<char,std::char_traits<char>,std::allocator<char> >::_Getal
  00051	89 45 e0	 mov	 DWORD PTR __Al$2[ebp], eax

; 3061 :             _Deallocate_for_capacity(_Al, _My_data._Bx._Ptr, _My_data._Myres);

  00054	8b 45 ec	 mov	 eax, DWORD PTR __My_data$[ebp]
  00057	8b 48 18	 mov	 ecx, DWORD PTR [eax+24]
  0005a	51		 push	 ecx
  0005b	8b 55 ec	 mov	 edx, DWORD PTR __My_data$[ebp]
  0005e	8b 42 04	 mov	 eax, DWORD PTR [edx+4]
  00061	50		 push	 eax
  00062	8b 4d e0	 mov	 ecx, DWORD PTR __Al$2[ebp]
  00065	51		 push	 ecx
  00066	e8 00 00 00 00	 call	 ?_Deallocate_for_capacity@?$basic_string@DU?$char_traits@D@std@@V?$allocator@D@2@@std@@CAXAAV?$allocator@D@2@QADI@Z ; std::basic_string<char,std::char_traits<char>,std::allocator<char> >::_Deallocate_for_capacity
  0006b	83 c4 0c	 add	 esp, 12			; 0000000cH

; 3062 :             _My_data._Bx._Switch_to_buf();

  0006e	8b 4d ec	 mov	 ecx, DWORD PTR __My_data$[ebp]
  00071	83 c1 04	 add	 ecx, 4
  00074	e8 00 00 00 00	 call	 ?_Switch_to_buf@_Bxty@?$_String_val@U?$_Simple_types@D@std@@@std@@QAEXXZ ; std::_String_val<std::_Simple_types<char> >::_Bxty::_Switch_to_buf
  00079	90		 npad	 1
$LN2@Tidy_deall:

; 3063 :         }
; 3064 : 
; 3065 :         _My_data._Mysize = 0;

  0007a	8b 45 ec	 mov	 eax, DWORD PTR __My_data$[ebp]
  0007d	c7 40 14 00 00
	00 00		 mov	 DWORD PTR [eax+20], 0

; 3066 :         _My_data._Myres  = _Small_string_capacity;

  00084	8b 45 ec	 mov	 eax, DWORD PTR __My_data$[ebp]
  00087	c7 40 18 0f 00
	00 00		 mov	 DWORD PTR [eax+24], 15	; 0000000fH

; 3067 :         // the _Traits::assign is last so the codegen doesn't think the char write can alias this
; 3068 :         _Traits::assign(_My_data._Bx._Buf[0], _Elem());

  0008e	c6 85 17 ff ff
	ff 00		 mov	 BYTE PTR $T1[ebp], 0
  00095	8d 85 17 ff ff
	ff		 lea	 eax, DWORD PTR $T1[ebp]
  0009b	50		 push	 eax
  0009c	b9 01 00 00 00	 mov	 ecx, 1
  000a1	6b d1 00	 imul	 edx, ecx, 0
  000a4	8b 45 ec	 mov	 eax, DWORD PTR __My_data$[ebp]
  000a7	8d 4c 10 04	 lea	 ecx, DWORD PTR [eax+edx+4]
  000ab	51		 push	 ecx
  000ac	e8 00 00 00 00	 call	 ?assign@?$_Narrow_char_traits@DH@std@@SAXAADABD@Z ; std::_Narrow_char_traits<char,int>::assign
  000b1	83 c4 08	 add	 esp, 8

; 3069 :     }

  000b4	5f		 pop	 edi
  000b5	5e		 pop	 esi
  000b6	5b		 pop	 ebx
  000b7	81 c4 f0 00 00
	00		 add	 esp, 240		; 000000f0H
  000bd	3b ec		 cmp	 ebp, esp
  000bf	e8 00 00 00 00	 call	 __RTC_CheckEsp
  000c4	8b e5		 mov	 esp, ebp
  000c6	5d		 pop	 ebp
  000c7	c3		 ret	 0
?_Tidy_deallocate@?$basic_string@DU?$char_traits@D@std@@V?$allocator@D@2@@std@@AAEXXZ ENDP ; std::basic_string<char,std::char_traits<char>,std::allocator<char> >::_Tidy_deallocate
_TEXT	ENDS
; Function compile flags: /Odtp /RTCsu /ZI
; File C:\Program Files\Microsoft Visual Studio\2022\Community\VC\Tools\MSVC\14.42.34433\include\xstring
;	COMDAT ?_Calculate_growth@?$basic_string@DU?$char_traits@D@std@@V?$allocator@D@2@@std@@CAIIII@Z
_TEXT	SEGMENT
$T1 = -216						; size = 4
__Masked$ = -12						; size = 4
__$ArrayPad$ = -4					; size = 4
__Requested$ = 8					; size = 4
__Old$ = 12						; size = 4
__Max$ = 16						; size = 4
?_Calculate_growth@?$basic_string@DU?$char_traits@D@std@@V?$allocator@D@2@@std@@CAIIII@Z PROC ; std::basic_string<char,std::char_traits<char>,std::allocator<char> >::_Calculate_growth, COMDAT

; 2952 :         const size_type _Requested, const size_type _Old, const size_type _Max) noexcept {

  00000	55		 push	 ebp
  00001	8b ec		 mov	 ebp, esp
  00003	81 ec dc 00 00
	00		 sub	 esp, 220		; 000000dcH
  00009	53		 push	 ebx
  0000a	56		 push	 esi
  0000b	57		 push	 edi
  0000c	8d 7d e4	 lea	 edi, DWORD PTR [ebp-28]
  0000f	b9 07 00 00 00	 mov	 ecx, 7
  00014	b8 cc cc cc cc	 mov	 eax, -858993460		; ccccccccH
  00019	f3 ab		 rep stosd
  0001b	a1 00 00 00 00	 mov	 eax, DWORD PTR ___security_cookie
  00020	33 c5		 xor	 eax, ebp
  00022	89 45 fc	 mov	 DWORD PTR __$ArrayPad$[ebp], eax
  00025	b9 00 00 00 00	 mov	 ecx, OFFSET __776EB5C9_xstring
  0002a	e8 00 00 00 00	 call	 @__CheckForDebuggerJustMyCode@4
  0002f	90		 npad	 1

; 2953 :         const size_type _Masked = _Requested | _Alloc_mask;

  00030	8b 45 08	 mov	 eax, DWORD PTR __Requested$[ebp]
  00033	83 c8 0f	 or	 eax, 15			; 0000000fH
  00036	89 45 f4	 mov	 DWORD PTR __Masked$[ebp], eax

; 2954 :         if (_Masked > _Max) { // the mask overflows, settle for max_size()

  00039	8b 45 f4	 mov	 eax, DWORD PTR __Masked$[ebp]
  0003c	3b 45 10	 cmp	 eax, DWORD PTR __Max$[ebp]
  0003f	76 05		 jbe	 SHORT $LN2@Calculate_

; 2955 :             return _Max;

  00041	8b 45 10	 mov	 eax, DWORD PTR __Max$[ebp]
  00044	eb 37		 jmp	 SHORT $LN1@Calculate_
$LN2@Calculate_:

; 2956 :         }
; 2957 : 
; 2958 :         if (_Old > _Max - _Old / 2) { // similarly, geometric overflows

  00046	8b 45 0c	 mov	 eax, DWORD PTR __Old$[ebp]
  00049	d1 e8		 shr	 eax, 1
  0004b	8b 4d 10	 mov	 ecx, DWORD PTR __Max$[ebp]
  0004e	2b c8		 sub	 ecx, eax
  00050	39 4d 0c	 cmp	 DWORD PTR __Old$[ebp], ecx
  00053	76 05		 jbe	 SHORT $LN3@Calculate_

; 2959 :             return _Max;

  00055	8b 45 10	 mov	 eax, DWORD PTR __Max$[ebp]
  00058	eb 23		 jmp	 SHORT $LN1@Calculate_
$LN3@Calculate_:

; 2960 :         }
; 2961 : 
; 2962 :         return (_STD max)(_Masked, _Old + _Old / 2);

  0005a	8b 45 0c	 mov	 eax, DWORD PTR __Old$[ebp]
  0005d	d1 e8		 shr	 eax, 1
  0005f	03 45 0c	 add	 eax, DWORD PTR __Old$[ebp]
  00062	89 85 28 ff ff
	ff		 mov	 DWORD PTR $T1[ebp], eax
  00068	8d 8d 28 ff ff
	ff		 lea	 ecx, DWORD PTR $T1[ebp]
  0006e	51		 push	 ecx
  0006f	8d 55 f4	 lea	 edx, DWORD PTR __Masked$[ebp]
  00072	52		 push	 edx
  00073	e8 00 00 00 00	 call	 ??$max@I@std@@YAABIABI0@Z ; std::max<unsigned int>
  00078	83 c4 08	 add	 esp, 8
  0007b	8b 00		 mov	 eax, DWORD PTR [eax]
$LN1@Calculate_:

; 2963 :     }

  0007d	52		 push	 edx
  0007e	8b cd		 mov	 ecx, ebp
  00080	50		 push	 eax
  00081	8d 15 00 00 00
	00		 lea	 edx, DWORD PTR $LN8@Calculate_
  00087	e8 00 00 00 00	 call	 @_RTC_CheckStackVars@8
  0008c	58		 pop	 eax
  0008d	5a		 pop	 edx
  0008e	5f		 pop	 edi
  0008f	5e		 pop	 esi
  00090	5b		 pop	 ebx
  00091	8b 4d fc	 mov	 ecx, DWORD PTR __$ArrayPad$[ebp]
  00094	33 cd		 xor	 ecx, ebp
  00096	e8 00 00 00 00	 call	 @__security_check_cookie@4
  0009b	81 c4 dc 00 00
	00		 add	 esp, 220		; 000000dcH
  000a1	3b ec		 cmp	 ebp, esp
  000a3	e8 00 00 00 00	 call	 __RTC_CheckEsp
  000a8	8b e5		 mov	 esp, ebp
  000aa	5d		 pop	 ebp
  000ab	c3		 ret	 0
$LN8@Calculate_:
  000ac	01 00 00 00	 DD	 1
  000b0	00 00 00 00	 DD	 $LN7@Calculate_
$LN7@Calculate_:
  000b4	f4 ff ff ff	 DD	 -12			; fffffff4H
  000b8	04 00 00 00	 DD	 4
  000bc	00 00 00 00	 DD	 $LN6@Calculate_
$LN6@Calculate_:
  000c0	5f		 DB	 95			; 0000005fH
  000c1	4d		 DB	 77			; 0000004dH
  000c2	61		 DB	 97			; 00000061H
  000c3	73		 DB	 115			; 00000073H
  000c4	6b		 DB	 107			; 0000006bH
  000c5	65		 DB	 101			; 00000065H
  000c6	64		 DB	 100			; 00000064H
  000c7	00		 DB	 0
?_Calculate_growth@?$basic_string@DU?$char_traits@D@std@@V?$allocator@D@2@@std@@CAIIII@Z ENDP ; std::basic_string<char,std::char_traits<char>,std::allocator<char> >::_Calculate_growth
_TEXT	ENDS
; Function compile flags: /Odtp /RTCsu /ZI
; File C:\Program Files\Microsoft Visual Studio\2022\Community\VC\Tools\MSVC\14.42.34433\include\xstring
;	COMDAT ?max_size@?$basic_string@DU?$char_traits@D@std@@V?$allocator@D@2@@std@@QBEIXZ
_TEXT	SEGMENT
$T1 = -264						; size = 4
$T2 = -252						; size = 4
$T3 = -240						; size = 4
__Storage_max$ = -36					; size = 4
__Alloc_max$ = -24					; size = 4
_this$ = -12						; size = 4
__$ArrayPad$ = -4					; size = 4
?max_size@?$basic_string@DU?$char_traits@D@std@@V?$allocator@D@2@@std@@QBEIXZ PROC ; std::basic_string<char,std::char_traits<char>,std::allocator<char> >::max_size, COMDAT
; _this$ = ecx

; 2360 :     _NODISCARD _CONSTEXPR20 size_type max_size() const noexcept {

  00000	55		 push	 ebp
  00001	8b ec		 mov	 ebp, esp
  00003	81 ec 0c 01 00
	00		 sub	 esp, 268		; 0000010cH
  00009	53		 push	 ebx
  0000a	56		 push	 esi
  0000b	57		 push	 edi
  0000c	51		 push	 ecx
  0000d	8d 7d b4	 lea	 edi, DWORD PTR [ebp-76]
  00010	b9 13 00 00 00	 mov	 ecx, 19			; 00000013H
  00015	b8 cc cc cc cc	 mov	 eax, -858993460		; ccccccccH
  0001a	f3 ab		 rep stosd
  0001c	59		 pop	 ecx
  0001d	a1 00 00 00 00	 mov	 eax, DWORD PTR ___security_cookie
  00022	33 c5		 xor	 eax, ebp
  00024	89 45 fc	 mov	 DWORD PTR __$ArrayPad$[ebp], eax
  00027	89 4d f4	 mov	 DWORD PTR _this$[ebp], ecx
  0002a	b9 00 00 00 00	 mov	 ecx, OFFSET __776EB5C9_xstring
  0002f	e8 00 00 00 00	 call	 @__CheckForDebuggerJustMyCode@4
  00034	90		 npad	 1

; 2361 :         const size_type _Alloc_max   = _Alty_traits::max_size(_Getal());

  00035	8b 4d f4	 mov	 ecx, DWORD PTR _this$[ebp]
  00038	e8 00 00 00 00	 call	 ?_Getal@?$basic_string@DU?$char_traits@D@std@@V?$allocator@D@2@@std@@ABEABV?$allocator@D@2@XZ ; std::basic_string<char,std::char_traits<char>,std::allocator<char> >::_Getal
  0003d	50		 push	 eax
  0003e	e8 00 00 00 00	 call	 ?max_size@?$_Default_allocator_traits@V?$allocator@D@std@@@std@@SAIABV?$allocator@D@2@@Z ; std::_Default_allocator_traits<std::allocator<char> >::max_size
  00043	83 c4 04	 add	 esp, 4
  00046	89 45 e8	 mov	 DWORD PTR __Alloc_max$[ebp], eax

; 2362 :         const size_type _Storage_max = // can always store small string

  00049	c7 85 10 ff ff
	ff 10 00 00 00	 mov	 DWORD PTR $T3[ebp], 16	; 00000010H
  00053	8d 85 10 ff ff
	ff		 lea	 eax, DWORD PTR $T3[ebp]
  00059	50		 push	 eax
  0005a	8d 4d e8	 lea	 ecx, DWORD PTR __Alloc_max$[ebp]
  0005d	51		 push	 ecx
  0005e	e8 00 00 00 00	 call	 ??$max@I@std@@YAABIABI0@Z ; std::max<unsigned int>
  00063	83 c4 08	 add	 esp, 8
  00066	8b 10		 mov	 edx, DWORD PTR [eax]
  00068	89 55 dc	 mov	 DWORD PTR __Storage_max$[ebp], edx

; 2363 :             (_STD max)(_Alloc_max, static_cast<size_type>(_BUF_SIZE));
; 2364 :         return (_STD min)(static_cast<size_type>(_STD _Max_limit<difference_type>()),

  0006b	8b 45 dc	 mov	 eax, DWORD PTR __Storage_max$[ebp]
  0006e	83 e8 01	 sub	 eax, 1
  00071	89 85 04 ff ff
	ff		 mov	 DWORD PTR $T2[ebp], eax
  00077	e8 00 00 00 00	 call	 ??$_Max_limit@H@std@@YAHXZ ; std::_Max_limit<int>
  0007c	89 85 f8 fe ff
	ff		 mov	 DWORD PTR $T1[ebp], eax
  00082	8d 8d 04 ff ff
	ff		 lea	 ecx, DWORD PTR $T2[ebp]
  00088	51		 push	 ecx
  00089	8d 95 f8 fe ff
	ff		 lea	 edx, DWORD PTR $T1[ebp]
  0008f	52		 push	 edx
  00090	e8 00 00 00 00	 call	 ??$min@I@std@@YAABIABI0@Z ; std::min<unsigned int>
  00095	83 c4 08	 add	 esp, 8
  00098	8b 00		 mov	 eax, DWORD PTR [eax]

; 2365 :             _Storage_max - 1 // -1 is for null terminator and/or npos
; 2366 :         );
; 2367 :     }

  0009a	52		 push	 edx
  0009b	8b cd		 mov	 ecx, ebp
  0009d	50		 push	 eax
  0009e	8d 15 00 00 00
	00		 lea	 edx, DWORD PTR $LN6@max_size
  000a4	e8 00 00 00 00	 call	 @_RTC_CheckStackVars@8
  000a9	58		 pop	 eax
  000aa	5a		 pop	 edx
  000ab	5f		 pop	 edi
  000ac	5e		 pop	 esi
  000ad	5b		 pop	 ebx
  000ae	8b 4d fc	 mov	 ecx, DWORD PTR __$ArrayPad$[ebp]
  000b1	33 cd		 xor	 ecx, ebp
  000b3	e8 00 00 00 00	 call	 @__security_check_cookie@4
  000b8	81 c4 0c 01 00
	00		 add	 esp, 268		; 0000010cH
  000be	3b ec		 cmp	 ebp, esp
  000c0	e8 00 00 00 00	 call	 __RTC_CheckEsp
  000c5	8b e5		 mov	 esp, ebp
  000c7	5d		 pop	 ebp
  000c8	c3		 ret	 0
  000c9	0f 1f 00	 npad	 3
$LN6@max_size:
  000cc	01 00 00 00	 DD	 1
  000d0	00 00 00 00	 DD	 $LN5@max_size
$LN5@max_size:
  000d4	e8 ff ff ff	 DD	 -24			; ffffffe8H
  000d8	04 00 00 00	 DD	 4
  000dc	00 00 00 00	 DD	 $LN4@max_size
$LN4@max_size:
  000e0	5f		 DB	 95			; 0000005fH
  000e1	41		 DB	 65			; 00000041H
  000e2	6c		 DB	 108			; 0000006cH
  000e3	6c		 DB	 108			; 0000006cH
  000e4	6f		 DB	 111			; 0000006fH
  000e5	63		 DB	 99			; 00000063H
  000e6	5f		 DB	 95			; 0000005fH
  000e7	6d		 DB	 109			; 0000006dH
  000e8	61		 DB	 97			; 00000061H
  000e9	78		 DB	 120			; 00000078H
  000ea	00		 DB	 0
?max_size@?$basic_string@DU?$char_traits@D@std@@V?$allocator@D@2@@std@@QBEIXZ ENDP ; std::basic_string<char,std::char_traits<char>,std::allocator<char> >::max_size
_TEXT	ENDS
; Function compile flags: /Odtp /RTCsu /ZI
; File C:\Program Files\Microsoft Visual Studio\2022\Community\VC\Tools\MSVC\14.42.34433\include\xstring
;	COMDAT ??1?$basic_string@DU?$char_traits@D@std@@V?$allocator@D@2@@std@@QAE@XZ
_TEXT	SEGMENT
__To_delete$ = -48					; size = 4
_$S4$ = -33						; size = 1
__Alproxy$ = -24					; size = 4
_this$ = -12						; size = 4
__$ArrayPad$ = -4					; size = 4
??1?$basic_string@DU?$char_traits@D@std@@V?$allocator@D@2@@std@@QAE@XZ PROC ; std::basic_string<char,std::char_traits<char>,std::allocator<char> >::~basic_string<char,std::char_traits<char>,std::allocator<char> >, COMDAT
; _this$ = ecx

; 1369 :     _CONSTEXPR20 ~basic_string() noexcept {

  00000	55		 push	 ebp
  00001	8b ec		 mov	 ebp, esp
  00003	81 ec f4 00 00
	00		 sub	 esp, 244		; 000000f4H
  00009	53		 push	 ebx
  0000a	56		 push	 esi
  0000b	57		 push	 edi
  0000c	51		 push	 ecx
  0000d	8d 7d cc	 lea	 edi, DWORD PTR [ebp-52]
  00010	b9 0d 00 00 00	 mov	 ecx, 13			; 0000000dH
  00015	b8 cc cc cc cc	 mov	 eax, -858993460		; ccccccccH
  0001a	f3 ab		 rep stosd
  0001c	59		 pop	 ecx
  0001d	a1 00 00 00 00	 mov	 eax, DWORD PTR ___security_cookie
  00022	33 c5		 xor	 eax, ebp
  00024	89 45 fc	 mov	 DWORD PTR __$ArrayPad$[ebp], eax
  00027	89 4d f4	 mov	 DWORD PTR _this$[ebp], ecx
  0002a	b9 00 00 00 00	 mov	 ecx, OFFSET __776EB5C9_xstring
  0002f	e8 00 00 00 00	 call	 @__CheckForDebuggerJustMyCode@4
  00034	90		 npad	 1

; 1370 :         _Tidy_deallocate();

  00035	8b 4d f4	 mov	 ecx, DWORD PTR _this$[ebp]
  00038	e8 00 00 00 00	 call	 ?_Tidy_deallocate@?$basic_string@DU?$char_traits@D@std@@V?$allocator@D@2@@std@@AAEXXZ ; std::basic_string<char,std::char_traits<char>,std::allocator<char> >::_Tidy_deallocate
  0003d	90		 npad	 1

; 1371 : #if _ITERATOR_DEBUG_LEVEL != 0
; 1372 :         auto&& _Alproxy          = _GET_PROXY_ALLOCATOR(_Alty, _Getal());

  0003e	8b 4d f4	 mov	 ecx, DWORD PTR _this$[ebp]
  00041	e8 00 00 00 00	 call	 ?_Getal@?$basic_string@DU?$char_traits@D@std@@V?$allocator@D@2@@std@@AAEAAV?$allocator@D@2@XZ ; std::basic_string<char,std::char_traits<char>,std::allocator<char> >::_Getal
  00046	50		 push	 eax
  00047	8d 4d df	 lea	 ecx, DWORD PTR _$S4$[ebp]
  0004a	e8 00 00 00 00	 call	 ??$?0D@?$allocator@U_Container_proxy@std@@@std@@QAE@ABV?$allocator@D@1@@Z ; std::allocator<std::_Container_proxy>::allocator<std::_Container_proxy><char>
  0004f	8d 45 df	 lea	 eax, DWORD PTR _$S4$[ebp]
  00052	89 45 e8	 mov	 DWORD PTR __Alproxy$[ebp], eax

; 1373 :         const auto _To_delete    = _Mypair._Myval2._Myproxy;

  00055	8b 45 f4	 mov	 eax, DWORD PTR _this$[ebp]
  00058	8b 08		 mov	 ecx, DWORD PTR [eax]
  0005a	89 4d d0	 mov	 DWORD PTR __To_delete$[ebp], ecx

; 1374 :         _Mypair._Myval2._Myproxy = nullptr;

  0005d	8b 45 f4	 mov	 eax, DWORD PTR _this$[ebp]
  00060	c7 00 00 00 00
	00		 mov	 DWORD PTR [eax], 0

; 1375 :         _Delete_plain_internal(_Alproxy, _To_delete);

  00066	8b 45 d0	 mov	 eax, DWORD PTR __To_delete$[ebp]
  00069	50		 push	 eax
  0006a	8b 4d e8	 mov	 ecx, DWORD PTR __Alproxy$[ebp]
  0006d	51		 push	 ecx
  0006e	e8 00 00 00 00	 call	 ??$_Delete_plain_internal@V?$allocator@U_Container_proxy@std@@@std@@@std@@YAXAAV?$allocator@U_Container_proxy@std@@@0@QAU_Container_proxy@0@@Z ; std::_Delete_plain_internal<std::allocator<std::_Container_proxy> >
  00073	83 c4 08	 add	 esp, 8

; 1376 : #endif // _ITERATOR_DEBUG_LEVEL != 0
; 1377 :     }

  00076	8b 4d f4	 mov	 ecx, DWORD PTR _this$[ebp]
  00079	e8 00 00 00 00	 call	 ??1?$_Compressed_pair@V?$allocator@D@std@@V?$_String_val@U?$_Simple_types@D@std@@@2@$00@std@@QAE@XZ
  0007e	90		 npad	 1
  0007f	52		 push	 edx
  00080	8b cd		 mov	 ecx, ebp
  00082	50		 push	 eax
  00083	8d 15 00 00 00
	00		 lea	 edx, DWORD PTR $LN6@basic_stri
  00089	e8 00 00 00 00	 call	 @_RTC_CheckStackVars@8
  0008e	58		 pop	 eax
  0008f	5a		 pop	 edx
  00090	5f		 pop	 edi
  00091	5e		 pop	 esi
  00092	5b		 pop	 ebx
  00093	8b 4d fc	 mov	 ecx, DWORD PTR __$ArrayPad$[ebp]
  00096	33 cd		 xor	 ecx, ebp
  00098	e8 00 00 00 00	 call	 @__security_check_cookie@4
  0009d	81 c4 f4 00 00
	00		 add	 esp, 244		; 000000f4H
  000a3	3b ec		 cmp	 ebp, esp
  000a5	e8 00 00 00 00	 call	 __RTC_CheckEsp
  000aa	8b e5		 mov	 esp, ebp
  000ac	5d		 pop	 ebp
  000ad	c3		 ret	 0
  000ae	66 90		 npad	 2
$LN6@basic_stri:
  000b0	01 00 00 00	 DD	 1
  000b4	00 00 00 00	 DD	 $LN5@basic_stri
$LN5@basic_stri:
  000b8	df ff ff ff	 DD	 -33			; ffffffdfH
  000bc	01 00 00 00	 DD	 1
  000c0	00 00 00 00	 DD	 $LN4@basic_stri
$LN4@basic_stri:
  000c4	24		 DB	 36			; 00000024H
  000c5	53		 DB	 83			; 00000053H
  000c6	34		 DB	 52			; 00000034H
  000c7	00		 DB	 0
??1?$basic_string@DU?$char_traits@D@std@@V?$allocator@D@2@@std@@QAE@XZ ENDP ; std::basic_string<char,std::char_traits<char>,std::allocator<char> >::~basic_string<char,std::char_traits<char>,std::allocator<char> >
_TEXT	ENDS
; Function compile flags: /Odtp /RTCsu /ZI
; File C:\Program Files\Microsoft Visual Studio\2022\Community\VC\Tools\MSVC\14.42.34433\include\xstring
;	COMDAT ?_Deallocate_for_capacity@?$basic_string@DU?$char_traits@D@std@@V?$allocator@D@2@@std@@CAXAAV?$allocator@D@2@QADI@Z
_TEXT	SEGMENT
__$EHRec$ = -12						; size = 12
__Al$ = 8						; size = 4
__Old_ptr$ = 12						; size = 4
__Capacity$ = 16					; size = 4
?_Deallocate_for_capacity@?$basic_string@DU?$char_traits@D@std@@V?$allocator@D@2@@std@@CAXAAV?$allocator@D@2@QADI@Z PROC ; std::basic_string<char,std::char_traits<char>,std::allocator<char> >::_Deallocate_for_capacity, COMDAT

; 831  :         _Alty& _Al, const pointer _Old_ptr, const size_type _Capacity) noexcept {

  00000	55		 push	 ebp
  00001	8b ec		 mov	 ebp, esp
  00003	6a ff		 push	 -1
  00005	68 00 00 00 00	 push	 __ehhandler$?_Deallocate_for_capacity@?$basic_string@DU?$char_traits@D@std@@V?$allocator@D@2@@std@@CAXAAV?$allocator@D@2@QADI@Z
  0000a	64 a1 00 00 00
	00		 mov	 eax, DWORD PTR fs:0
  00010	50		 push	 eax
  00011	81 ec c0 00 00
	00		 sub	 esp, 192		; 000000c0H
  00017	53		 push	 ebx
  00018	56		 push	 esi
  00019	57		 push	 edi
  0001a	8d 7d f4	 lea	 edi, DWORD PTR [ebp-12]
  0001d	33 c9		 xor	 ecx, ecx
  0001f	b8 cc cc cc cc	 mov	 eax, -858993460		; ccccccccH
  00024	f3 ab		 rep stosd
  00026	a1 00 00 00 00	 mov	 eax, DWORD PTR ___security_cookie
  0002b	33 c5		 xor	 eax, ebp
  0002d	50		 push	 eax
  0002e	8d 45 f4	 lea	 eax, DWORD PTR __$EHRec$[ebp]
  00031	64 a3 00 00 00
	00		 mov	 DWORD PTR fs:0, eax
  00037	b9 00 00 00 00	 mov	 ecx, OFFSET __776EB5C9_xstring
  0003c	e8 00 00 00 00	 call	 @__CheckForDebuggerJustMyCode@4
  00041	90		 npad	 1

; 832  :         _STL_INTERNAL_CHECK(_Capacity > _Small_string_capacity);
; 833  :         _Al.deallocate(_Old_ptr, _Capacity + 1); // +1 for null terminator

  00042	8b 45 10	 mov	 eax, DWORD PTR __Capacity$[ebp]
  00045	83 c0 01	 add	 eax, 1
  00048	50		 push	 eax
  00049	8b 4d 0c	 mov	 ecx, DWORD PTR __Old_ptr$[ebp]
  0004c	51		 push	 ecx
  0004d	8b 4d 08	 mov	 ecx, DWORD PTR __Al$[ebp]
  00050	e8 00 00 00 00	 call	 ?deallocate@?$allocator@D@std@@QAEXQADI@Z ; std::allocator<char>::deallocate
  00055	90		 npad	 1

; 834  :     }

  00056	8b 4d f4	 mov	 ecx, DWORD PTR __$EHRec$[ebp]
  00059	64 89 0d 00 00
	00 00		 mov	 DWORD PTR fs:0, ecx
  00060	59		 pop	 ecx
  00061	5f		 pop	 edi
  00062	5e		 pop	 esi
  00063	5b		 pop	 ebx
  00064	81 c4 cc 00 00
	00		 add	 esp, 204		; 000000ccH
  0006a	3b ec		 cmp	 ebp, esp
  0006c	e8 00 00 00 00	 call	 __RTC_CheckEsp
  00071	8b e5		 mov	 esp, ebp
  00073	5d		 pop	 ebp
  00074	c3		 ret	 0
  00075	cc		 int	 3
  00076	cc		 int	 3
  00077	cc		 int	 3
  00078	cc		 int	 3
  00079	cc		 int	 3
_TEXT	ENDS
;	COMDAT text$x
text$x	SEGMENT
__ehhandler$?_Deallocate_for_capacity@?$basic_string@DU?$char_traits@D@std@@V?$allocator@D@2@@std@@CAXAAV?$allocator@D@2@QADI@Z:
  00000	90		 npad	 1
  00001	90		 npad	 1
  00002	8b 54 24 08	 mov	 edx, DWORD PTR [esp+8]
  00006	8d 42 0c	 lea	 eax, DWORD PTR [edx+12]
  00009	8b 8a 30 ff ff
	ff		 mov	 ecx, DWORD PTR [edx-208]
  0000f	33 c8		 xor	 ecx, eax
  00011	e8 00 00 00 00	 call	 @__security_check_cookie@4
  00016	b8 00 00 00 00	 mov	 eax, OFFSET __ehfuncinfo$?_Deallocate_for_capacity@?$basic_string@DU?$char_traits@D@std@@V?$allocator@D@2@@std@@CAXAAV?$allocator@D@2@QADI@Z
  0001b	e9 00 00 00 00	 jmp	 ___CxxFrameHandler3
text$x	ENDS
?_Deallocate_for_capacity@?$basic_string@DU?$char_traits@D@std@@V?$allocator@D@2@@std@@CAXAAV?$allocator@D@2@QADI@Z ENDP ; std::basic_string<char,std::char_traits<char>,std::allocator<char> >::_Deallocate_for_capacity
; Function compile flags: /Odtp /RTCsu /ZI
; File C:\Program Files\Microsoft Visual Studio\2022\Community\VC\Tools\MSVC\14.42.34433\include\xstring
;	COMDAT ??0?$basic_string@DU?$char_traits@D@std@@V?$allocator@D@2@@std@@QAE@QBD@Z
_TEXT	SEGMENT
$T2 = -221						; size = 1
_this$ = -20						; size = 4
__$EHRec$ = -12						; size = 12
__Ptr$ = 8						; size = 4
??0?$basic_string@DU?$char_traits@D@std@@V?$allocator@D@2@@std@@QAE@QBD@Z PROC ; std::basic_string<char,std::char_traits<char>,std::allocator<char> >::basic_string<char,std::char_traits<char>,std::allocator<char> >, COMDAT
; _this$ = ecx

; 749  :     _CONSTEXPR20 basic_string(_In_z_ const _Elem* const _Ptr) : _Mypair(_Zero_then_variadic_args_t{}) {

  00000	55		 push	 ebp
  00001	8b ec		 mov	 ebp, esp
  00003	6a ff		 push	 -1
  00005	68 00 00 00 00	 push	 __ehhandler$??0?$basic_string@DU?$char_traits@D@std@@V?$allocator@D@2@@std@@QAE@QBD@Z
  0000a	64 a1 00 00 00
	00		 mov	 eax, DWORD PTR fs:0
  00010	50		 push	 eax
  00011	81 ec d8 00 00
	00		 sub	 esp, 216		; 000000d8H
  00017	53		 push	 ebx
  00018	56		 push	 esi
  00019	57		 push	 edi
  0001a	51		 push	 ecx
  0001b	8d 7d dc	 lea	 edi, DWORD PTR [ebp-36]
  0001e	b9 06 00 00 00	 mov	 ecx, 6
  00023	b8 cc cc cc cc	 mov	 eax, -858993460		; ccccccccH
  00028	f3 ab		 rep stosd
  0002a	59		 pop	 ecx
  0002b	a1 00 00 00 00	 mov	 eax, DWORD PTR ___security_cookie
  00030	33 c5		 xor	 eax, ebp
  00032	50		 push	 eax
  00033	8d 45 f4	 lea	 eax, DWORD PTR __$EHRec$[ebp]
  00036	64 a3 00 00 00
	00		 mov	 DWORD PTR fs:0, eax
  0003c	89 4d ec	 mov	 DWORD PTR _this$[ebp], ecx
  0003f	b9 00 00 00 00	 mov	 ecx, OFFSET __776EB5C9_xstring
  00044	e8 00 00 00 00	 call	 @__CheckForDebuggerJustMyCode@4
  00049	90		 npad	 1
  0004a	0f b6 85 23 ff
	ff ff		 movzx	 eax, BYTE PTR $T2[ebp]
  00051	50		 push	 eax
  00052	8b 4d ec	 mov	 ecx, DWORD PTR _this$[ebp]
  00055	e8 00 00 00 00	 call	 ??$?0$$V@?$_Compressed_pair@V?$allocator@D@std@@V?$_String_val@U?$_Simple_types@D@std@@@2@$00@std@@QAE@U_Zero_then_variadic_args_t@1@@Z ; std::_Compressed_pair<std::allocator<char>,std::_String_val<std::_Simple_types<char> >,1>::_Compressed_pair<std::allocator<char>,std::_String_val<std::_Simple_types<char> >,1><>
  0005a	c7 45 fc 00 00
	00 00		 mov	 DWORD PTR __$EHRec$[ebp+8], 0

; 750  :         _Construct<_Construct_strategy::_From_ptr>(_Ptr, _Convert_size<size_type>(_Traits::length(_Ptr)));

  00061	8b 45 08	 mov	 eax, DWORD PTR __Ptr$[ebp]
  00064	50		 push	 eax
  00065	e8 00 00 00 00	 call	 ?length@?$_Narrow_char_traits@DH@std@@SAIQBD@Z ; std::_Narrow_char_traits<char,int>::length
  0006a	83 c4 04	 add	 esp, 4
  0006d	50		 push	 eax
  0006e	e8 00 00 00 00	 call	 ??$_Convert_size@II@std@@YAII@Z ; std::_Convert_size<unsigned int,unsigned int>
  00073	83 c4 04	 add	 esp, 4
  00076	50		 push	 eax
  00077	8b 4d 08	 mov	 ecx, DWORD PTR __Ptr$[ebp]
  0007a	51		 push	 ecx
  0007b	8b 4d ec	 mov	 ecx, DWORD PTR _this$[ebp]
  0007e	e8 00 00 00 00	 call	 ??$_Construct@$00PBD@?$basic_string@DU?$char_traits@D@std@@V?$allocator@D@2@@std@@AAEXQBDI@Z ; std::basic_string<char,std::char_traits<char>,std::allocator<char> >::_Construct<1,char const *>
  00083	90		 npad	 1

; 751  :     }

  00084	c7 45 fc ff ff
	ff ff		 mov	 DWORD PTR __$EHRec$[ebp+8], -1
  0008b	8b 45 ec	 mov	 eax, DWORD PTR _this$[ebp]
  0008e	8b 4d f4	 mov	 ecx, DWORD PTR __$EHRec$[ebp]
  00091	64 89 0d 00 00
	00 00		 mov	 DWORD PTR fs:0, ecx
  00098	59		 pop	 ecx
  00099	5f		 pop	 edi
  0009a	5e		 pop	 esi
  0009b	5b		 pop	 ebx
  0009c	81 c4 e4 00 00
	00		 add	 esp, 228		; 000000e4H
  000a2	3b ec		 cmp	 ebp, esp
  000a4	e8 00 00 00 00	 call	 __RTC_CheckEsp
  000a9	8b e5		 mov	 esp, ebp
  000ab	5d		 pop	 ebp
  000ac	c2 04 00	 ret	 4
_TEXT	ENDS
;	COMDAT text$x
text$x	SEGMENT
__unwindfunclet$??0?$basic_string@DU?$char_traits@D@std@@V?$allocator@D@2@@std@@QAE@QBD@Z$0:
  00000	8b 4d ec	 mov	 ecx, DWORD PTR _this$[ebp]
  00003	e9 00 00 00 00	 jmp	 ??1?$_Compressed_pair@V?$allocator@D@std@@V?$_String_val@U?$_Simple_types@D@std@@@2@$00@std@@QAE@XZ
  00008	cc		 int	 3
  00009	cc		 int	 3
  0000a	cc		 int	 3
  0000b	cc		 int	 3
  0000c	cc		 int	 3
__ehhandler$??0?$basic_string@DU?$char_traits@D@std@@V?$allocator@D@2@@std@@QAE@QBD@Z:
  0000d	90		 npad	 1
  0000e	90		 npad	 1
  0000f	8b 54 24 08	 mov	 edx, DWORD PTR [esp+8]
  00013	8d 42 0c	 lea	 eax, DWORD PTR [edx+12]
  00016	8b 8a 18 ff ff
	ff		 mov	 ecx, DWORD PTR [edx-232]
  0001c	33 c8		 xor	 ecx, eax
  0001e	e8 00 00 00 00	 call	 @__security_check_cookie@4
  00023	b8 00 00 00 00	 mov	 eax, OFFSET __ehfuncinfo$??0?$basic_string@DU?$char_traits@D@std@@V?$allocator@D@2@@std@@QAE@QBD@Z
  00028	e9 00 00 00 00	 jmp	 ___CxxFrameHandler3
text$x	ENDS
??0?$basic_string@DU?$char_traits@D@std@@V?$allocator@D@2@@std@@QAE@QBD@Z ENDP ; std::basic_string<char,std::char_traits<char>,std::allocator<char> >::basic_string<char,std::char_traits<char>,std::allocator<char> >
; Function compile flags: /Odtp /RTCsu /ZI
; File C:\Program Files\Microsoft Visual Studio\2022\Community\VC\Tools\MSVC\14.42.34433\include\xstring
;	COMDAT ??0?$basic_string@DU?$char_traits@D@std@@V?$allocator@D@2@@std@@QAE@ABV01@@Z
_TEXT	SEGMENT
$T2 = -233						; size = 1
$T3 = -221						; size = 1
_this$ = -20						; size = 4
__$EHRec$ = -12						; size = 12
__Right$ = 8						; size = 4
??0?$basic_string@DU?$char_traits@D@std@@V?$allocator@D@2@@std@@QAE@ABV01@@Z PROC ; std::basic_string<char,std::char_traits<char>,std::allocator<char> >::basic_string<char,std::char_traits<char>,std::allocator<char> >, COMDAT
; _this$ = ecx

; 698  :         : _Mypair(_One_then_variadic_args_t{}, _Alty_traits::select_on_container_copy_construction(_Right._Getal())) {

  00000	55		 push	 ebp
  00001	8b ec		 mov	 ebp, esp
  00003	6a ff		 push	 -1
  00005	68 00 00 00 00	 push	 __ehhandler$??0?$basic_string@DU?$char_traits@D@std@@V?$allocator@D@2@@std@@QAE@ABV01@@Z
  0000a	64 a1 00 00 00
	00		 mov	 eax, DWORD PTR fs:0
  00010	50		 push	 eax
  00011	81 ec e4 00 00
	00		 sub	 esp, 228		; 000000e4H
  00017	53		 push	 ebx
  00018	56		 push	 esi
  00019	57		 push	 edi
  0001a	51		 push	 ecx
  0001b	8d 7d d0	 lea	 edi, DWORD PTR [ebp-48]
  0001e	b9 09 00 00 00	 mov	 ecx, 9
  00023	b8 cc cc cc cc	 mov	 eax, -858993460		; ccccccccH
  00028	f3 ab		 rep stosd
  0002a	59		 pop	 ecx
  0002b	a1 00 00 00 00	 mov	 eax, DWORD PTR ___security_cookie
  00030	33 c5		 xor	 eax, ebp
  00032	50		 push	 eax
  00033	8d 45 f4	 lea	 eax, DWORD PTR __$EHRec$[ebp]
  00036	64 a3 00 00 00
	00		 mov	 DWORD PTR fs:0, eax
  0003c	89 4d ec	 mov	 DWORD PTR _this$[ebp], ecx
  0003f	b9 00 00 00 00	 mov	 ecx, OFFSET __776EB5C9_xstring
  00044	e8 00 00 00 00	 call	 @__CheckForDebuggerJustMyCode@4
  00049	90		 npad	 1
  0004a	8b 4d 08	 mov	 ecx, DWORD PTR __Right$[ebp]
  0004d	e8 00 00 00 00	 call	 ?_Getal@?$basic_string@DU?$char_traits@D@std@@V?$allocator@D@2@@std@@ABEABV?$allocator@D@2@XZ ; std::basic_string<char,std::char_traits<char>,std::allocator<char> >::_Getal
  00052	50		 push	 eax
  00053	8d 85 23 ff ff
	ff		 lea	 eax, DWORD PTR $T3[ebp]
  00059	50		 push	 eax
  0005a	e8 00 00 00 00	 call	 ?select_on_container_copy_construction@?$_Default_allocator_traits@V?$allocator@D@std@@@std@@SA?AV?$allocator@D@2@ABV32@@Z ; std::_Default_allocator_traits<std::allocator<char> >::select_on_container_copy_construction
  0005f	83 c4 08	 add	 esp, 8
  00062	50		 push	 eax
  00063	0f b6 8d 17 ff
	ff ff		 movzx	 ecx, BYTE PTR $T2[ebp]
  0006a	51		 push	 ecx
  0006b	8b 4d ec	 mov	 ecx, DWORD PTR _this$[ebp]
  0006e	e8 00 00 00 00	 call	 ??$?0V?$allocator@D@std@@$$V@?$_Compressed_pair@V?$allocator@D@std@@V?$_String_val@U?$_Simple_types@D@std@@@2@$00@std@@QAE@U_One_then_variadic_args_t@1@$$QAV?$allocator@D@1@@Z ; std::_Compressed_pair<std::allocator<char>,std::_String_val<std::_Simple_types<char> >,1>::_Compressed_pair<std::allocator<char>,std::_String_val<std::_Simple_types<char> >,1><std::allocator<char> >
  00073	c7 45 fc 00 00
	00 00		 mov	 DWORD PTR __$EHRec$[ebp+8], 0

; 699  :         _Construct<_Construct_strategy::_From_string>(_Right._Mypair._Myval2._Myptr(), _Right._Mypair._Myval2._Mysize);

  0007a	8b 45 08	 mov	 eax, DWORD PTR __Right$[ebp]
  0007d	8b 48 14	 mov	 ecx, DWORD PTR [eax+20]
  00080	51		 push	 ecx
  00081	8b 4d 08	 mov	 ecx, DWORD PTR __Right$[ebp]
  00084	e8 00 00 00 00	 call	 ?_Myptr@?$_String_val@U?$_Simple_types@D@std@@@std@@QBEPBDXZ ; std::_String_val<std::_Simple_types<char> >::_Myptr
  00089	50		 push	 eax
  0008a	8b 4d ec	 mov	 ecx, DWORD PTR _this$[ebp]
  0008d	e8 00 00 00 00	 call	 ??$_Construct@$01PBD@?$basic_string@DU?$char_traits@D@std@@V?$allocator@D@2@@std@@AAEXQBDI@Z ; std::basic_string<char,std::char_traits<char>,std::allocator<char> >::_Construct<2,char const *>
  00092	90		 npad	 1

; 700  :     }

  00093	c7 45 fc ff ff
	ff ff		 mov	 DWORD PTR __$EHRec$[ebp+8], -1
  0009a	8b 45 ec	 mov	 eax, DWORD PTR _this$[ebp]
  0009d	8b 4d f4	 mov	 ecx, DWORD PTR __$EHRec$[ebp]
  000a0	64 89 0d 00 00
	00 00		 mov	 DWORD PTR fs:0, ecx
  000a7	59		 pop	 ecx
  000a8	5f		 pop	 edi
  000a9	5e		 pop	 esi
  000aa	5b		 pop	 ebx
  000ab	81 c4 f0 00 00
	00		 add	 esp, 240		; 000000f0H
  000b1	3b ec		 cmp	 ebp, esp
  000b3	e8 00 00 00 00	 call	 __RTC_CheckEsp
  000b8	8b e5		 mov	 esp, ebp
  000ba	5d		 pop	 ebp
  000bb	c2 04 00	 ret	 4
_TEXT	ENDS
;	COMDAT text$x
text$x	SEGMENT
__unwindfunclet$??0?$basic_string@DU?$char_traits@D@std@@V?$allocator@D@2@@std@@QAE@ABV01@@Z$0:
  00000	8b 4d ec	 mov	 ecx, DWORD PTR _this$[ebp]
  00003	e9 00 00 00 00	 jmp	 ??1?$_Compressed_pair@V?$allocator@D@std@@V?$_String_val@U?$_Simple_types@D@std@@@2@$00@std@@QAE@XZ
  00008	cc		 int	 3
  00009	cc		 int	 3
  0000a	cc		 int	 3
  0000b	cc		 int	 3
  0000c	cc		 int	 3
__ehhandler$??0?$basic_string@DU?$char_traits@D@std@@V?$allocator@D@2@@std@@QAE@ABV01@@Z:
  0000d	90		 npad	 1
  0000e	90		 npad	 1
  0000f	8b 54 24 08	 mov	 edx, DWORD PTR [esp+8]
  00013	8d 42 0c	 lea	 eax, DWORD PTR [edx+12]
  00016	8b 8a 0c ff ff
	ff		 mov	 ecx, DWORD PTR [edx-244]
  0001c	33 c8		 xor	 ecx, eax
  0001e	e8 00 00 00 00	 call	 @__security_check_cookie@4
  00023	b8 00 00 00 00	 mov	 eax, OFFSET __ehfuncinfo$??0?$basic_string@DU?$char_traits@D@std@@V?$allocator@D@2@@std@@QAE@ABV01@@Z
  00028	e9 00 00 00 00	 jmp	 ___CxxFrameHandler3
text$x	ENDS
??0?$basic_string@DU?$char_traits@D@std@@V?$allocator@D@2@@std@@QAE@ABV01@@Z ENDP ; std::basic_string<char,std::char_traits<char>,std::allocator<char> >::basic_string<char,std::char_traits<char>,std::allocator<char> >
; Function compile flags: /Odtp /RTCsu /ZI
;	COMDAT ??1?$_String_val@U?$_Simple_types@D@std@@@std@@QAE@XZ
_TEXT	SEGMENT
_this$ = -8						; size = 4
??1?$_String_val@U?$_Simple_types@D@std@@@std@@QAE@XZ PROC ; std::_String_val<std::_Simple_types<char> >::~_String_val<std::_Simple_types<char> >, COMDAT
; _this$ = ecx
  00000	55		 push	 ebp
  00001	8b ec		 mov	 ebp, esp
  00003	81 ec cc 00 00
	00		 sub	 esp, 204		; 000000ccH
  00009	53		 push	 ebx
  0000a	56		 push	 esi
  0000b	57		 push	 edi
  0000c	51		 push	 ecx
  0000d	8d 7d f4	 lea	 edi, DWORD PTR [ebp-12]
  00010	b9 03 00 00 00	 mov	 ecx, 3
  00015	b8 cc cc cc cc	 mov	 eax, -858993460		; ccccccccH
  0001a	f3 ab		 rep stosd
  0001c	59		 pop	 ecx
  0001d	89 4d f8	 mov	 DWORD PTR _this$[ebp], ecx
  00020	8b 4d f8	 mov	 ecx, DWORD PTR _this$[ebp]
  00023	83 c1 04	 add	 ecx, 4
  00026	e8 00 00 00 00	 call	 ??1_Bxty@?$_String_val@U?$_Simple_types@D@std@@@std@@QAE@XZ ; std::_String_val<std::_Simple_types<char> >::_Bxty::~_Bxty
  0002b	90		 npad	 1
  0002c	5f		 pop	 edi
  0002d	5e		 pop	 esi
  0002e	5b		 pop	 ebx
  0002f	81 c4 cc 00 00
	00		 add	 esp, 204		; 000000ccH
  00035	3b ec		 cmp	 ebp, esp
  00037	e8 00 00 00 00	 call	 __RTC_CheckEsp
  0003c	8b e5		 mov	 esp, ebp
  0003e	5d		 pop	 ebp
  0003f	c3		 ret	 0
??1?$_String_val@U?$_Simple_types@D@std@@@std@@QAE@XZ ENDP ; std::_String_val<std::_Simple_types<char> >::~_String_val<std::_Simple_types<char> >
_TEXT	ENDS
; Function compile flags: /Odtp /RTCsu /ZI
; File C:\Program Files\Microsoft Visual Studio\2022\Community\VC\Tools\MSVC\14.42.34433\include\xstring
;	COMDAT ?_Switch_to_buf@_Bxty@?$_String_val@U?$_Simple_types@D@std@@@std@@QAEXXZ
_TEXT	SEGMENT
_this$ = -8						; size = 4
?_Switch_to_buf@_Bxty@?$_String_val@U?$_Simple_types@D@std@@@std@@QAEXXZ PROC ; std::_String_val<std::_Simple_types<char> >::_Bxty::_Switch_to_buf, COMDAT
; _this$ = ecx

; 481  :         _CONSTEXPR20 void _Switch_to_buf() noexcept {

  00000	55		 push	 ebp
  00001	8b ec		 mov	 ebp, esp
  00003	81 ec cc 00 00
	00		 sub	 esp, 204		; 000000ccH
  00009	53		 push	 ebx
  0000a	56		 push	 esi
  0000b	57		 push	 edi
  0000c	51		 push	 ecx
  0000d	8d 7d f4	 lea	 edi, DWORD PTR [ebp-12]
  00010	b9 03 00 00 00	 mov	 ecx, 3
  00015	b8 cc cc cc cc	 mov	 eax, -858993460		; ccccccccH
  0001a	f3 ab		 rep stosd
  0001c	59		 pop	 ecx
  0001d	89 4d f8	 mov	 DWORD PTR _this$[ebp], ecx
  00020	b9 00 00 00 00	 mov	 ecx, OFFSET __776EB5C9_xstring
  00025	e8 00 00 00 00	 call	 @__CheckForDebuggerJustMyCode@4
  0002a	90		 npad	 1

; 482  :             _STD _Destroy_in_place(_Ptr);

  0002b	8b 45 f8	 mov	 eax, DWORD PTR _this$[ebp]
  0002e	50		 push	 eax
  0002f	e8 00 00 00 00	 call	 ??$_Destroy_in_place@PAD@std@@YAXAAPAD@Z ; std::_Destroy_in_place<char *>
  00034	83 c4 04	 add	 esp, 4

; 483  : 
; 484  : #if _HAS_CXX20
; 485  :             // start the lifetime of the array elements
; 486  :             if (_STD is_constant_evaluated()) {
; 487  :                 for (size_type _Idx = 0; _Idx < _BUF_SIZE; ++_Idx) {
; 488  :                     _Buf[_Idx] = value_type();
; 489  :                 }
; 490  :             }
; 491  : #endif // _HAS_CXX20
; 492  :         }

  00037	5f		 pop	 edi
  00038	5e		 pop	 esi
  00039	5b		 pop	 ebx
  0003a	81 c4 cc 00 00
	00		 add	 esp, 204		; 000000ccH
  00040	3b ec		 cmp	 ebp, esp
  00042	e8 00 00 00 00	 call	 __RTC_CheckEsp
  00047	8b e5		 mov	 esp, ebp
  00049	5d		 pop	 ebp
  0004a	c3		 ret	 0
?_Switch_to_buf@_Bxty@?$_String_val@U?$_Simple_types@D@std@@@std@@QAEXXZ ENDP ; std::_String_val<std::_Simple_types<char> >::_Bxty::_Switch_to_buf
_TEXT	ENDS
; Function compile flags: /Odtp /RTCsu /ZI
; File C:\Program Files\Microsoft Visual Studio\2022\Community\VC\Tools\MSVC\14.42.34433\include\xstring
;	COMDAT ??1_Bxty@?$_String_val@U?$_Simple_types@D@std@@@std@@QAE@XZ
_TEXT	SEGMENT
_this$ = -8						; size = 4
??1_Bxty@?$_String_val@U?$_Simple_types@D@std@@@std@@QAE@XZ PROC ; std::_String_val<std::_Simple_types<char> >::_Bxty::~_Bxty, COMDAT
; _this$ = ecx

; 475  :         _CONSTEXPR20 ~_Bxty() noexcept {} // user-provided, for fancy pointers

  00000	55		 push	 ebp
  00001	8b ec		 mov	 ebp, esp
  00003	81 ec cc 00 00
	00		 sub	 esp, 204		; 000000ccH
  00009	53		 push	 ebx
  0000a	56		 push	 esi
  0000b	57		 push	 edi
  0000c	51		 push	 ecx
  0000d	8d 7d f4	 lea	 edi, DWORD PTR [ebp-12]
  00010	b9 03 00 00 00	 mov	 ecx, 3
  00015	b8 cc cc cc cc	 mov	 eax, -858993460		; ccccccccH
  0001a	f3 ab		 rep stosd
  0001c	59		 pop	 ecx
  0001d	89 4d f8	 mov	 DWORD PTR _this$[ebp], ecx
  00020	b9 00 00 00 00	 mov	 ecx, OFFSET __776EB5C9_xstring
  00025	e8 00 00 00 00	 call	 @__CheckForDebuggerJustMyCode@4
  0002a	90		 npad	 1
  0002b	5f		 pop	 edi
  0002c	5e		 pop	 esi
  0002d	5b		 pop	 ebx
  0002e	81 c4 cc 00 00
	00		 add	 esp, 204		; 000000ccH
  00034	3b ec		 cmp	 ebp, esp
  00036	e8 00 00 00 00	 call	 __RTC_CheckEsp
  0003b	8b e5		 mov	 esp, ebp
  0003d	5d		 pop	 ebp
  0003e	c3		 ret	 0
??1_Bxty@?$_String_val@U?$_Simple_types@D@std@@@std@@QAE@XZ ENDP ; std::_String_val<std::_Simple_types<char> >::_Bxty::~_Bxty
_TEXT	ENDS
; Function compile flags: /Odtp /RTCsu /ZI
; File C:\Program Files\Microsoft Visual Studio\2022\Community\VC\Tools\MSVC\14.42.34433\include\xstring
;	COMDAT ??0_Bxty@?$_String_val@U?$_Simple_types@D@std@@@std@@QAE@XZ
_TEXT	SEGMENT
_this$ = -8						; size = 4
??0_Bxty@?$_String_val@U?$_Simple_types@D@std@@@std@@QAE@XZ PROC ; std::_String_val<std::_Simple_types<char> >::_Bxty::_Bxty, COMDAT
; _this$ = ecx

; 474  :         _CONSTEXPR20 _Bxty() noexcept : _Buf() {} // user-provided, for fancy pointers

  00000	55		 push	 ebp
  00001	8b ec		 mov	 ebp, esp
  00003	81 ec cc 00 00
	00		 sub	 esp, 204		; 000000ccH
  00009	53		 push	 ebx
  0000a	56		 push	 esi
  0000b	57		 push	 edi
  0000c	51		 push	 ecx
  0000d	8d 7d f4	 lea	 edi, DWORD PTR [ebp-12]
  00010	b9 03 00 00 00	 mov	 ecx, 3
  00015	b8 cc cc cc cc	 mov	 eax, -858993460		; ccccccccH
  0001a	f3 ab		 rep stosd
  0001c	59		 pop	 ecx
  0001d	89 4d f8	 mov	 DWORD PTR _this$[ebp], ecx
  00020	b9 00 00 00 00	 mov	 ecx, OFFSET __776EB5C9_xstring
  00025	e8 00 00 00 00	 call	 @__CheckForDebuggerJustMyCode@4
  0002a	90		 npad	 1
  0002b	33 c0		 xor	 eax, eax
  0002d	8b 4d f8	 mov	 ecx, DWORD PTR _this$[ebp]
  00030	89 01		 mov	 DWORD PTR [ecx], eax
  00032	89 41 04	 mov	 DWORD PTR [ecx+4], eax
  00035	89 41 08	 mov	 DWORD PTR [ecx+8], eax
  00038	89 41 0c	 mov	 DWORD PTR [ecx+12], eax
  0003b	8b 45 f8	 mov	 eax, DWORD PTR _this$[ebp]
  0003e	5f		 pop	 edi
  0003f	5e		 pop	 esi
  00040	5b		 pop	 ebx
  00041	81 c4 cc 00 00
	00		 add	 esp, 204		; 000000ccH
  00047	3b ec		 cmp	 ebp, esp
  00049	e8 00 00 00 00	 call	 __RTC_CheckEsp
  0004e	8b e5		 mov	 esp, ebp
  00050	5d		 pop	 ebp
  00051	c3		 ret	 0
??0_Bxty@?$_String_val@U?$_Simple_types@D@std@@@std@@QAE@XZ ENDP ; std::_String_val<std::_Simple_types<char> >::_Bxty::_Bxty
_TEXT	ENDS
; Function compile flags: /Odtp /RTCsu /ZI
; File C:\Program Files\Microsoft Visual Studio\2022\Community\VC\Tools\MSVC\14.42.34433\include\xstring
;	COMDAT ?_Large_mode_engaged@?$_String_val@U?$_Simple_types@D@std@@@std@@QBE_NXZ
_TEXT	SEGMENT
tv66 = -208						; size = 4
_this$ = -8						; size = 4
?_Large_mode_engaged@?$_String_val@U?$_Simple_types@D@std@@@std@@QBE_NXZ PROC ; std::_String_val<std::_Simple_types<char> >::_Large_mode_engaged, COMDAT
; _this$ = ecx

; 433  :     _NODISCARD _CONSTEXPR20 bool _Large_mode_engaged() const noexcept {

  00000	55		 push	 ebp
  00001	8b ec		 mov	 ebp, esp
  00003	81 ec d0 00 00
	00		 sub	 esp, 208		; 000000d0H
  00009	53		 push	 ebx
  0000a	56		 push	 esi
  0000b	57		 push	 edi
  0000c	51		 push	 ecx
  0000d	8d 7d f0	 lea	 edi, DWORD PTR [ebp-16]
  00010	b9 04 00 00 00	 mov	 ecx, 4
  00015	b8 cc cc cc cc	 mov	 eax, -858993460		; ccccccccH
  0001a	f3 ab		 rep stosd
  0001c	59		 pop	 ecx
  0001d	89 4d f8	 mov	 DWORD PTR _this$[ebp], ecx
  00020	b9 00 00 00 00	 mov	 ecx, OFFSET __776EB5C9_xstring
  00025	e8 00 00 00 00	 call	 @__CheckForDebuggerJustMyCode@4
  0002a	90		 npad	 1

; 434  :         return _Myres > _Small_string_capacity;

  0002b	8b 45 f8	 mov	 eax, DWORD PTR _this$[ebp]
  0002e	83 78 18 0f	 cmp	 DWORD PTR [eax+24], 15	; 0000000fH
  00032	76 0c		 jbe	 SHORT $LN3@Large_mode
  00034	c7 85 30 ff ff
	ff 01 00 00 00	 mov	 DWORD PTR tv66[ebp], 1
  0003e	eb 0a		 jmp	 SHORT $LN4@Large_mode
$LN3@Large_mode:
  00040	c7 85 30 ff ff
	ff 00 00 00 00	 mov	 DWORD PTR tv66[ebp], 0
$LN4@Large_mode:
  0004a	0f b6 85 30 ff
	ff ff		 movzx	 eax, BYTE PTR tv66[ebp]

; 435  :     }

  00051	5f		 pop	 edi
  00052	5e		 pop	 esi
  00053	5b		 pop	 ebx
  00054	81 c4 d0 00 00
	00		 add	 esp, 208		; 000000d0H
  0005a	3b ec		 cmp	 ebp, esp
  0005c	e8 00 00 00 00	 call	 __RTC_CheckEsp
  00061	8b e5		 mov	 esp, ebp
  00063	5d		 pop	 ebp
  00064	c3		 ret	 0
?_Large_mode_engaged@?$_String_val@U?$_Simple_types@D@std@@@std@@QBE_NXZ ENDP ; std::_String_val<std::_Simple_types<char> >::_Large_mode_engaged
_TEXT	ENDS
; Function compile flags: /Odtp /RTCsu /ZI
; File C:\Program Files\Microsoft Visual Studio\2022\Community\VC\Tools\MSVC\14.42.34433\include\xstring
;	COMDAT ?_Myptr@?$_String_val@U?$_Simple_types@D@std@@@std@@QBEPBDXZ
_TEXT	SEGMENT
__Result$ = -20						; size = 4
_this$ = -8						; size = 4
?_Myptr@?$_String_val@U?$_Simple_types@D@std@@@std@@QBEPBDXZ PROC ; std::_String_val<std::_Simple_types<char> >::_Myptr, COMDAT
; _this$ = ecx

; 424  :     _NODISCARD _CONSTEXPR20 const value_type* _Myptr() const noexcept {

  00000	55		 push	 ebp
  00001	8b ec		 mov	 ebp, esp
  00003	81 ec d8 00 00
	00		 sub	 esp, 216		; 000000d8H
  00009	53		 push	 ebx
  0000a	56		 push	 esi
  0000b	57		 push	 edi
  0000c	51		 push	 ecx
  0000d	8d 7d e8	 lea	 edi, DWORD PTR [ebp-24]
  00010	b9 06 00 00 00	 mov	 ecx, 6
  00015	b8 cc cc cc cc	 mov	 eax, -858993460		; ccccccccH
  0001a	f3 ab		 rep stosd
  0001c	59		 pop	 ecx
  0001d	89 4d f8	 mov	 DWORD PTR _this$[ebp], ecx
  00020	b9 00 00 00 00	 mov	 ecx, OFFSET __776EB5C9_xstring
  00025	e8 00 00 00 00	 call	 @__CheckForDebuggerJustMyCode@4
  0002a	90		 npad	 1

; 425  :         const value_type* _Result = _Bx._Buf;

  0002b	8b 45 f8	 mov	 eax, DWORD PTR _this$[ebp]
  0002e	83 c0 04	 add	 eax, 4
  00031	89 45 ec	 mov	 DWORD PTR __Result$[ebp], eax

; 426  :         if (_Large_mode_engaged()) {

  00034	8b 4d f8	 mov	 ecx, DWORD PTR _this$[ebp]
  00037	e8 00 00 00 00	 call	 ?_Large_mode_engaged@?$_String_val@U?$_Simple_types@D@std@@@std@@QBE_NXZ ; std::_String_val<std::_Simple_types<char> >::_Large_mode_engaged
  0003c	0f b6 c0	 movzx	 eax, al
  0003f	85 c0		 test	 eax, eax
  00041	74 12		 je	 SHORT $LN2@Myptr

; 427  :             _Result = _Unfancy(_Bx._Ptr);

  00043	8b 45 f8	 mov	 eax, DWORD PTR _this$[ebp]
  00046	8b 48 04	 mov	 ecx, DWORD PTR [eax+4]
  00049	51		 push	 ecx
  0004a	e8 00 00 00 00	 call	 ??$_Unfancy@D@std@@YAPADPAD@Z ; std::_Unfancy<char>
  0004f	83 c4 04	 add	 esp, 4
  00052	89 45 ec	 mov	 DWORD PTR __Result$[ebp], eax
$LN2@Myptr:

; 428  :         }
; 429  : 
; 430  :         return _Result;

  00055	8b 45 ec	 mov	 eax, DWORD PTR __Result$[ebp]

; 431  :     }

  00058	5f		 pop	 edi
  00059	5e		 pop	 esi
  0005a	5b		 pop	 ebx
  0005b	81 c4 d8 00 00
	00		 add	 esp, 216		; 000000d8H
  00061	3b ec		 cmp	 ebp, esp
  00063	e8 00 00 00 00	 call	 __RTC_CheckEsp
  00068	8b e5		 mov	 esp, ebp
  0006a	5d		 pop	 ebp
  0006b	c3		 ret	 0
?_Myptr@?$_String_val@U?$_Simple_types@D@std@@@std@@QBEPBDXZ ENDP ; std::_String_val<std::_Simple_types<char> >::_Myptr
_TEXT	ENDS
; Function compile flags: /Odtp /RTCsu /ZI
; File C:\Program Files\Microsoft Visual Studio\2022\Community\VC\Tools\MSVC\14.42.34433\include\xstring
;	COMDAT ??0?$_String_val@U?$_Simple_types@D@std@@@std@@QAE@XZ
_TEXT	SEGMENT
_this$ = -8						; size = 4
??0?$_String_val@U?$_Simple_types@D@std@@@std@@QAE@XZ PROC ; std::_String_val<std::_Simple_types<char> >::_String_val<std::_Simple_types<char> >, COMDAT
; _this$ = ecx

; 402  :     _CONSTEXPR20 _String_val() noexcept : _Bx() {}

  00000	55		 push	 ebp
  00001	8b ec		 mov	 ebp, esp
  00003	81 ec cc 00 00
	00		 sub	 esp, 204		; 000000ccH
  00009	53		 push	 ebx
  0000a	56		 push	 esi
  0000b	57		 push	 edi
  0000c	51		 push	 ecx
  0000d	8d 7d f4	 lea	 edi, DWORD PTR [ebp-12]
  00010	b9 03 00 00 00	 mov	 ecx, 3
  00015	b8 cc cc cc cc	 mov	 eax, -858993460		; ccccccccH
  0001a	f3 ab		 rep stosd
  0001c	59		 pop	 ecx
  0001d	89 4d f8	 mov	 DWORD PTR _this$[ebp], ecx
  00020	b9 00 00 00 00	 mov	 ecx, OFFSET __776EB5C9_xstring
  00025	e8 00 00 00 00	 call	 @__CheckForDebuggerJustMyCode@4
  0002a	90		 npad	 1
  0002b	8b 4d f8	 mov	 ecx, DWORD PTR _this$[ebp]
  0002e	e8 00 00 00 00	 call	 ??0_Container_base12@std@@QAE@XZ ; std::_Container_base12::_Container_base12
  00033	90		 npad	 1
  00034	8b 4d f8	 mov	 ecx, DWORD PTR _this$[ebp]
  00037	83 c1 04	 add	 ecx, 4
  0003a	e8 00 00 00 00	 call	 ??0_Bxty@?$_String_val@U?$_Simple_types@D@std@@@std@@QAE@XZ ; std::_String_val<std::_Simple_types<char> >::_Bxty::_Bxty
  0003f	90		 npad	 1

; 403  : 
; 404  :     // length of internal buffer, [1, 16] (NB: used by the debugger visualizer)
; 405  :     static constexpr size_type _BUF_SIZE = 16 / sizeof(value_type) < 1 ? 1 : 16 / sizeof(value_type);
; 406  :     // roundup mask for allocated buffers, [0, 15]
; 407  :     static constexpr size_type _Alloc_mask = sizeof(value_type) <= 1 ? 15
; 408  :                                            : sizeof(value_type) <= 2 ? 7
; 409  :                                            : sizeof(value_type) <= 4 ? 3
; 410  :                                            : sizeof(value_type) <= 8 ? 1
; 411  :                                                                      : 0;
; 412  :     // capacity in small mode
; 413  :     static constexpr size_type _Small_string_capacity = _BUF_SIZE - 1;
; 414  : 
; 415  :     _NODISCARD _CONSTEXPR20 value_type* _Myptr() noexcept {
; 416  :         value_type* _Result = _Bx._Buf;
; 417  :         if (_Large_mode_engaged()) {
; 418  :             _Result = _Unfancy(_Bx._Ptr);
; 419  :         }
; 420  : 
; 421  :         return _Result;
; 422  :     }
; 423  : 
; 424  :     _NODISCARD _CONSTEXPR20 const value_type* _Myptr() const noexcept {
; 425  :         const value_type* _Result = _Bx._Buf;
; 426  :         if (_Large_mode_engaged()) {
; 427  :             _Result = _Unfancy(_Bx._Ptr);
; 428  :         }
; 429  : 
; 430  :         return _Result;
; 431  :     }
; 432  : 
; 433  :     _NODISCARD _CONSTEXPR20 bool _Large_mode_engaged() const noexcept {
; 434  :         return _Myres > _Small_string_capacity;
; 435  :     }
; 436  : 
; 437  :     _CONSTEXPR20 void _Activate_SSO_buffer() noexcept {
; 438  :         // start the lifetime of the array elements
; 439  : #if _HAS_CXX20
; 440  :         if (_STD is_constant_evaluated()) {
; 441  :             for (size_type _Idx = 0; _Idx < _BUF_SIZE; ++_Idx) {
; 442  :                 _Bx._Buf[_Idx] = value_type();
; 443  :             }
; 444  :         }
; 445  : #endif // _HAS_CXX20
; 446  :     }
; 447  : 
; 448  :     _CONSTEXPR20 void _Check_offset(const size_type _Off) const {
; 449  :         // checks whether _Off is in the bounds of [0, size()]
; 450  :         if (_Mysize < _Off) {
; 451  :             _Xran();
; 452  :         }
; 453  :     }
; 454  : 
; 455  :     _CONSTEXPR20 void _Check_offset_exclusive(const size_type _Off) const {
; 456  :         // checks whether _Off is in the bounds of [0, size())
; 457  :         if (_Mysize <= _Off) {
; 458  :             _Xran();
; 459  :         }
; 460  :     }
; 461  : 
; 462  :     [[noreturn]] static void _Xran() {
; 463  :         _Xout_of_range("invalid string position");
; 464  :     }
; 465  : 
; 466  :     _NODISCARD _CONSTEXPR20 size_type _Clamp_suffix_size(const size_type _Off, const size_type _Size) const noexcept {
; 467  :         // trims _Size to the longest it can be assuming a string at/after _Off
; 468  :         return (_STD min)(_Size, _Mysize - _Off);
; 469  :     }
; 470  : 
; 471  :     union _Bxty { // storage for small buffer or pointer to larger one
; 472  :         // This constructor previously initialized _Ptr. Don't rely on the new behavior without
; 473  :         // renaming `_String_val` (and fixing the visualizer).
; 474  :         _CONSTEXPR20 _Bxty() noexcept : _Buf() {} // user-provided, for fancy pointers
; 475  :         _CONSTEXPR20 ~_Bxty() noexcept {} // user-provided, for fancy pointers
; 476  : 
; 477  :         value_type _Buf[_BUF_SIZE];
; 478  :         pointer _Ptr;
; 479  :         char _Alias[_BUF_SIZE]; // TRANSITION, ABI: _Alias is preserved for binary compatibility (especially /clr)
; 480  : 
; 481  :         _CONSTEXPR20 void _Switch_to_buf() noexcept {
; 482  :             _STD _Destroy_in_place(_Ptr);
; 483  : 
; 484  : #if _HAS_CXX20
; 485  :             // start the lifetime of the array elements
; 486  :             if (_STD is_constant_evaluated()) {
; 487  :                 for (size_type _Idx = 0; _Idx < _BUF_SIZE; ++_Idx) {
; 488  :                     _Buf[_Idx] = value_type();
; 489  :                 }
; 490  :             }
; 491  : #endif // _HAS_CXX20
; 492  :         }
; 493  :     };
; 494  :     _Bxty _Bx;
; 495  : 
; 496  :     // invariant: _Myres >= _Mysize, and _Myres >= _Small_string_capacity (after string's construction)
; 497  :     // neither _Mysize nor _Myres takes account of the extra null terminator
; 498  :     size_type _Mysize = 0; // current length of string (size)

  00040	8b 45 f8	 mov	 eax, DWORD PTR _this$[ebp]
  00043	c7 40 14 00 00
	00 00		 mov	 DWORD PTR [eax+20], 0

; 499  :     size_type _Myres  = 0; // current storage reserved for string (capacity)

  0004a	8b 45 f8	 mov	 eax, DWORD PTR _this$[ebp]
  0004d	c7 40 18 00 00
	00 00		 mov	 DWORD PTR [eax+24], 0

; 402  :     _CONSTEXPR20 _String_val() noexcept : _Bx() {}

  00054	8b 45 f8	 mov	 eax, DWORD PTR _this$[ebp]
  00057	5f		 pop	 edi
  00058	5e		 pop	 esi
  00059	5b		 pop	 ebx
  0005a	81 c4 cc 00 00
	00		 add	 esp, 204		; 000000ccH
  00060	3b ec		 cmp	 ebp, esp
  00062	e8 00 00 00 00	 call	 __RTC_CheckEsp
  00067	8b e5		 mov	 esp, ebp
  00069	5d		 pop	 ebp
  0006a	c3		 ret	 0
??0?$_String_val@U?$_Simple_types@D@std@@@std@@QAE@XZ ENDP ; std::_String_val<std::_Simple_types<char> >::_String_val<std::_Simple_types<char> >
_TEXT	ENDS
; Function compile flags: /Odtp /RTCsu /ZI
; File C:\Program Files\Microsoft Visual Studio\2022\Community\VC\Tools\MSVC\14.42.34433\include\xmemory
;	COMDAT ?select_on_container_copy_construction@?$_Default_allocator_traits@V?$allocator@D@std@@@std@@SA?AV?$allocator@D@2@ABV32@@Z
_TEXT	SEGMENT
___$ReturnUdt$ = 8					; size = 4
__Al$ = 12						; size = 4
?select_on_container_copy_construction@?$_Default_allocator_traits@V?$allocator@D@std@@@std@@SA?AV?$allocator@D@2@ABV32@@Z PROC ; std::_Default_allocator_traits<std::allocator<char> >::select_on_container_copy_construction, COMDAT

; 717  :     _NODISCARD static _CONSTEXPR20 _Alloc select_on_container_copy_construction(const _Alloc& _Al) {

  00000	55		 push	 ebp
  00001	8b ec		 mov	 ebp, esp
  00003	81 ec c0 00 00
	00		 sub	 esp, 192		; 000000c0H
  00009	53		 push	 ebx
  0000a	56		 push	 esi
  0000b	57		 push	 edi
  0000c	8b fd		 mov	 edi, ebp
  0000e	33 c9		 xor	 ecx, ecx
  00010	b8 cc cc cc cc	 mov	 eax, -858993460		; ccccccccH
  00015	f3 ab		 rep stosd
  00017	b9 00 00 00 00	 mov	 ecx, OFFSET __03BD3355_xmemory
  0001c	e8 00 00 00 00	 call	 @__CheckForDebuggerJustMyCode@4
  00021	90		 npad	 1

; 718  :         return _Al;

  00022	8b 45 08	 mov	 eax, DWORD PTR ___$ReturnUdt$[ebp]

; 719  :     }

  00025	5f		 pop	 edi
  00026	5e		 pop	 esi
  00027	5b		 pop	 ebx
  00028	81 c4 c0 00 00
	00		 add	 esp, 192		; 000000c0H
  0002e	3b ec		 cmp	 ebp, esp
  00030	e8 00 00 00 00	 call	 __RTC_CheckEsp
  00035	8b e5		 mov	 esp, ebp
  00037	5d		 pop	 ebp
  00038	c3		 ret	 0
?select_on_container_copy_construction@?$_Default_allocator_traits@V?$allocator@D@std@@@std@@SA?AV?$allocator@D@2@ABV32@@Z ENDP ; std::_Default_allocator_traits<std::allocator<char> >::select_on_container_copy_construction
_TEXT	ENDS
; Function compile flags: /Odtp /RTCsu /ZI
; File C:\Program Files\Microsoft Visual Studio\2022\Community\VC\Tools\MSVC\14.42.34433\include\xmemory
;	COMDAT ?max_size@?$_Default_allocator_traits@V?$allocator@D@std@@@std@@SAIABV?$allocator@D@2@@Z
_TEXT	SEGMENT
___formal$ = 8						; size = 4
?max_size@?$_Default_allocator_traits@V?$allocator@D@std@@@std@@SAIABV?$allocator@D@2@@Z PROC ; std::_Default_allocator_traits<std::allocator<char> >::max_size, COMDAT

; 713  :     _NODISCARD static _CONSTEXPR20 size_type max_size(const _Alloc&) noexcept {

  00000	55		 push	 ebp
  00001	8b ec		 mov	 ebp, esp
  00003	81 ec c0 00 00
	00		 sub	 esp, 192		; 000000c0H
  00009	53		 push	 ebx
  0000a	56		 push	 esi
  0000b	57		 push	 edi
  0000c	8b fd		 mov	 edi, ebp
  0000e	33 c9		 xor	 ecx, ecx
  00010	b8 cc cc cc cc	 mov	 eax, -858993460		; ccccccccH
  00015	f3 ab		 rep stosd
  00017	b9 00 00 00 00	 mov	 ecx, OFFSET __03BD3355_xmemory
  0001c	e8 00 00 00 00	 call	 @__CheckForDebuggerJustMyCode@4
  00021	90		 npad	 1

; 714  :         return static_cast<size_t>(-1) / sizeof(value_type);

  00022	83 c8 ff	 or	 eax, -1

; 715  :     }

  00025	5f		 pop	 edi
  00026	5e		 pop	 esi
  00027	5b		 pop	 ebx
  00028	81 c4 c0 00 00
	00		 add	 esp, 192		; 000000c0H
  0002e	3b ec		 cmp	 ebp, esp
  00030	e8 00 00 00 00	 call	 __RTC_CheckEsp
  00035	8b e5		 mov	 esp, ebp
  00037	5d		 pop	 ebp
  00038	c3		 ret	 0
?max_size@?$_Default_allocator_traits@V?$allocator@D@std@@@std@@SAIABV?$allocator@D@2@@Z ENDP ; std::_Default_allocator_traits<std::allocator<char> >::max_size
_TEXT	ENDS
; Function compile flags: /Odtp /RTCsu /ZI
; File C:\Program Files\Microsoft Visual Studio\2022\Community\VC\Tools\MSVC\14.42.34433\include\xmemory
;	COMDAT ?allocate@?$allocator@D@std@@QAEPADI@Z
_TEXT	SEGMENT
_this$ = -8						; size = 4
__Count$ = 8						; size = 4
?allocate@?$allocator@D@std@@QAEPADI@Z PROC		; std::allocator<char>::allocate, COMDAT
; _this$ = ecx

; 952  :     _NODISCARD_RAW_PTR_ALLOC _CONSTEXPR20 __declspec(allocator) _Ty* allocate(_CRT_GUARDOVERFLOW const size_t _Count) {

  00000	55		 push	 ebp
  00001	8b ec		 mov	 ebp, esp
  00003	81 ec cc 00 00
	00		 sub	 esp, 204		; 000000ccH
  00009	53		 push	 ebx
  0000a	56		 push	 esi
  0000b	57		 push	 edi
  0000c	51		 push	 ecx
  0000d	8d 7d f4	 lea	 edi, DWORD PTR [ebp-12]
  00010	b9 03 00 00 00	 mov	 ecx, 3
  00015	b8 cc cc cc cc	 mov	 eax, -858993460		; ccccccccH
  0001a	f3 ab		 rep stosd
  0001c	59		 pop	 ecx
  0001d	89 4d f8	 mov	 DWORD PTR _this$[ebp], ecx
  00020	b9 00 00 00 00	 mov	 ecx, OFFSET __03BD3355_xmemory
  00025	e8 00 00 00 00	 call	 @__CheckForDebuggerJustMyCode@4
  0002a	90		 npad	 1

; 953  :         static_assert(sizeof(value_type) > 0, "value_type must be complete before calling allocate.");
; 954  :         return static_cast<_Ty*>(_STD _Allocate<_New_alignof<_Ty>>(_Get_size_of_n<sizeof(_Ty)>(_Count)));

  0002b	8b 45 08	 mov	 eax, DWORD PTR __Count$[ebp]
  0002e	50		 push	 eax
  0002f	e8 00 00 00 00	 call	 ??$_Get_size_of_n@$00@std@@YAII@Z ; std::_Get_size_of_n<1>
  00034	83 c4 04	 add	 esp, 4
  00037	50		 push	 eax
  00038	e8 00 00 00 00	 call	 ??$_Allocate@$07U_Default_allocate_traits@std@@@std@@YAPAXI@Z ; std::_Allocate<8,std::_Default_allocate_traits>
  0003d	83 c4 04	 add	 esp, 4

; 955  :     }

  00040	5f		 pop	 edi
  00041	5e		 pop	 esi
  00042	5b		 pop	 ebx
  00043	81 c4 cc 00 00
	00		 add	 esp, 204		; 000000ccH
  00049	3b ec		 cmp	 ebp, esp
  0004b	e8 00 00 00 00	 call	 __RTC_CheckEsp
  00050	8b e5		 mov	 esp, ebp
  00052	5d		 pop	 ebp
  00053	c2 04 00	 ret	 4
?allocate@?$allocator@D@std@@QAEPADI@Z ENDP		; std::allocator<char>::allocate
_TEXT	ENDS
; Function compile flags: /Odtp /RTCsu /ZI
; File C:\Program Files\Microsoft Visual Studio\2022\Community\VC\Tools\MSVC\14.42.34433\include\xmemory
;	COMDAT ?deallocate@?$allocator@D@std@@QAEXQADI@Z
_TEXT	SEGMENT
_this$ = -8						; size = 4
__Ptr$ = 8						; size = 4
__Count$ = 12						; size = 4
?deallocate@?$allocator@D@std@@QAEXQADI@Z PROC		; std::allocator<char>::deallocate, COMDAT
; _this$ = ecx

; 946  :     _CONSTEXPR20 void deallocate(_Ty* const _Ptr, const size_t _Count) {

  00000	55		 push	 ebp
  00001	8b ec		 mov	 ebp, esp
  00003	81 ec cc 00 00
	00		 sub	 esp, 204		; 000000ccH
  00009	53		 push	 ebx
  0000a	56		 push	 esi
  0000b	57		 push	 edi
  0000c	51		 push	 ecx
  0000d	8d 7d f4	 lea	 edi, DWORD PTR [ebp-12]
  00010	b9 03 00 00 00	 mov	 ecx, 3
  00015	b8 cc cc cc cc	 mov	 eax, -858993460		; ccccccccH
  0001a	f3 ab		 rep stosd
  0001c	59		 pop	 ecx
  0001d	89 4d f8	 mov	 DWORD PTR _this$[ebp], ecx
  00020	b9 00 00 00 00	 mov	 ecx, OFFSET __03BD3355_xmemory
  00025	e8 00 00 00 00	 call	 @__CheckForDebuggerJustMyCode@4
  0002a	90		 npad	 1
$LN4@deallocate:

; 947  :         _STL_ASSERT(_Ptr != nullptr || _Count == 0, "null pointer cannot point to a block of non-zero size");

  0002b	83 7d 08 00	 cmp	 DWORD PTR __Ptr$[ebp], 0
  0002f	75 06		 jne	 SHORT $LN10@deallocate
  00031	83 7d 0c 00	 cmp	 DWORD PTR __Count$[ebp], 0
  00035	75 02		 jne	 SHORT $LN8@deallocate
$LN10@deallocate:
  00037	eb 5d		 jmp	 SHORT $LN6@deallocate
$LN8@deallocate:
  00039	8b f4		 mov	 esi, esp
  0003b	68 00 00 00 00	 push	 OFFSET ??_C@_0DG@KGHKKGBC@null?5pointer?5cannot?5point?5to?5a?5@
  00040	68 00 00 00 00	 push	 OFFSET ??_C@_02DKCKIIND@?$CFs@
  00045	6a 00		 push	 0
  00047	68 b3 03 00 00	 push	 947			; 000003b3H
  0004c	68 00 00 00 00	 push	 OFFSET ??_C@_0GC@KIHIELAM@C?3?2Program?5Files?2Microsoft?5Visu@
  00051	6a 02		 push	 2
  00053	ff 15 00 00 00
	00		 call	 DWORD PTR __imp___CrtDbgReport
  00059	83 c4 18	 add	 esp, 24			; 00000018H
  0005c	3b f4		 cmp	 esi, esp
  0005e	e8 00 00 00 00	 call	 __RTC_CheckEsp
  00063	83 f8 01	 cmp	 eax, 1
  00066	75 01		 jne	 SHORT $LN12@deallocate
  00068	cc		 int	 3
$LN12@deallocate:
  00069	8b f4		 mov	 esi, esp
  0006b	6a 00		 push	 0
  0006d	68 b3 03 00 00	 push	 947			; 000003b3H
  00072	68 00 00 00 00	 push	 OFFSET ??_C@_1ME@NMPKGKJL@?$AAC?$AA?3?$AA?2?$AAP?$AAr?$AAo?$AAg?$AAr?$AAa?$AAm?$AA?5?$AAF?$AAi?$AAl?$AAe@
  00077	68 00 00 00 00	 push	 OFFSET ??_C@_11LOCGONAA@@
  0007c	68 00 00 00 00	 push	 OFFSET ??_C@_1HA@FACCKGGH@?$AA?$CC?$AAn?$AAu?$AAl?$AAl?$AA?5?$AAp?$AAo?$AAi?$AAn?$AAt?$AAe?$AAr?$AA?5?$AAc@
  00081	ff 15 00 00 00
	00		 call	 DWORD PTR __imp___invalid_parameter
  00087	83 c4 14	 add	 esp, 20			; 00000014H
  0008a	3b f4		 cmp	 esi, esp
  0008c	e8 00 00 00 00	 call	 __RTC_CheckEsp
  00091	90		 npad	 1
  00092	33 c0		 xor	 eax, eax
  00094	75 a3		 jne	 SHORT $LN8@deallocate
$LN6@deallocate:
  00096	33 c0		 xor	 eax, eax
  00098	75 91		 jne	 SHORT $LN4@deallocate

; 948  :         // no overflow check on the following multiply; we assume _Allocate did that check
; 949  :         _STD _Deallocate<_New_alignof<_Ty>>(_Ptr, sizeof(_Ty) * _Count);

  0009a	8b 45 0c	 mov	 eax, DWORD PTR __Count$[ebp]
  0009d	50		 push	 eax
  0009e	8b 4d 08	 mov	 ecx, DWORD PTR __Ptr$[ebp]
  000a1	51		 push	 ecx
  000a2	e8 00 00 00 00	 call	 ??$_Deallocate@$07@std@@YAXPAXI@Z ; std::_Deallocate<8>
  000a7	83 c4 08	 add	 esp, 8

; 950  :     }

  000aa	5f		 pop	 edi
  000ab	5e		 pop	 esi
  000ac	5b		 pop	 ebx
  000ad	81 c4 cc 00 00
	00		 add	 esp, 204		; 000000ccH
  000b3	3b ec		 cmp	 ebp, esp
  000b5	e8 00 00 00 00	 call	 __RTC_CheckEsp
  000ba	8b e5		 mov	 esp, ebp
  000bc	5d		 pop	 ebp
  000bd	c2 08 00	 ret	 8
?deallocate@?$allocator@D@std@@QAEXQADI@Z ENDP		; std::allocator<char>::deallocate
_TEXT	ENDS
; Function compile flags: /Odtp /RTCsu /ZI
; File C:\Program Files\Microsoft Visual Studio\2022\Community\VC\Tools\MSVC\14.42.34433\include\xmemory
;	COMDAT ??0?$allocator@D@std@@QAE@XZ
_TEXT	SEGMENT
_this$ = -8						; size = 4
??0?$allocator@D@std@@QAE@XZ PROC			; std::allocator<char>::allocator<char>, COMDAT
; _this$ = ecx

; 938  :     constexpr allocator() noexcept {}

  00000	55		 push	 ebp
  00001	8b ec		 mov	 ebp, esp
  00003	81 ec cc 00 00
	00		 sub	 esp, 204		; 000000ccH
  00009	53		 push	 ebx
  0000a	56		 push	 esi
  0000b	57		 push	 edi
  0000c	51		 push	 ecx
  0000d	8d 7d f4	 lea	 edi, DWORD PTR [ebp-12]
  00010	b9 03 00 00 00	 mov	 ecx, 3
  00015	b8 cc cc cc cc	 mov	 eax, -858993460		; ccccccccH
  0001a	f3 ab		 rep stosd
  0001c	59		 pop	 ecx
  0001d	89 4d f8	 mov	 DWORD PTR _this$[ebp], ecx
  00020	b9 00 00 00 00	 mov	 ecx, OFFSET __03BD3355_xmemory
  00025	e8 00 00 00 00	 call	 @__CheckForDebuggerJustMyCode@4
  0002a	90		 npad	 1
  0002b	8b 45 f8	 mov	 eax, DWORD PTR _this$[ebp]
  0002e	5f		 pop	 edi
  0002f	5e		 pop	 esi
  00030	5b		 pop	 ebx
  00031	81 c4 cc 00 00
	00		 add	 esp, 204		; 000000ccH
  00037	3b ec		 cmp	 ebp, esp
  00039	e8 00 00 00 00	 call	 __RTC_CheckEsp
  0003e	8b e5		 mov	 esp, ebp
  00040	5d		 pop	 ebp
  00041	c3		 ret	 0
??0?$allocator@D@std@@QAE@XZ ENDP			; std::allocator<char>::allocator<char>
_TEXT	ENDS
; Function compile flags: /Odtp /RTCsu /ZI
; File C:\Program Files\Microsoft Visual Studio\2022\Community\VC\Tools\MSVC\14.42.34433\include\xstring
;	COMDAT ?_Xlen_string@std@@YAXXZ
_TEXT	SEGMENT
?_Xlen_string@std@@YAXXZ PROC				; std::_Xlen_string, COMDAT

; 516  : [[noreturn]] inline void _Xlen_string() {

  00000	55		 push	 ebp
  00001	8b ec		 mov	 ebp, esp
  00003	81 ec c0 00 00
	00		 sub	 esp, 192		; 000000c0H
  00009	53		 push	 ebx
  0000a	56		 push	 esi
  0000b	57		 push	 edi
  0000c	8b fd		 mov	 edi, ebp
  0000e	33 c9		 xor	 ecx, ecx
  00010	b8 cc cc cc cc	 mov	 eax, -858993460		; ccccccccH
  00015	f3 ab		 rep stosd
  00017	b9 00 00 00 00	 mov	 ecx, OFFSET __776EB5C9_xstring
  0001c	e8 00 00 00 00	 call	 @__CheckForDebuggerJustMyCode@4
  00021	90		 npad	 1

; 517  :     _Xlength_error("string too long");

  00022	68 00 00 00 00	 push	 OFFSET ??_C@_0BA@JFNIOLAK@string?5too?5long@
  00027	e8 00 00 00 00	 call	 ?_Xlength_error@std@@YAXPBD@Z ; std::_Xlength_error
  0002c	90		 npad	 1
$LN1@Xlen_strin:

; 518  : }

  0002d	5f		 pop	 edi
  0002e	5e		 pop	 esi
  0002f	5b		 pop	 ebx
  00030	81 c4 c0 00 00
	00		 add	 esp, 192		; 000000c0H
  00036	3b ec		 cmp	 ebp, esp
  00038	e8 00 00 00 00	 call	 __RTC_CheckEsp
  0003d	8b e5		 mov	 esp, ebp
  0003f	5d		 pop	 ebp
  00040	c3		 ret	 0
?_Xlen_string@std@@YAXXZ ENDP				; std::_Xlen_string
_TEXT	ENDS
; Function compile flags: /Odtp /RTCsu /ZI
; File C:\Program Files\Microsoft Visual Studio\2022\Community\VC\Tools\MSVC\14.42.34433\include\xutility
;	COMDAT ??$_Construct_in_place@U_Container_proxy@std@@PAU_Container_base12@2@@std@@YAXAAU_Container_proxy@0@$$QAPAU_Container_base12@0@@Z
_TEXT	SEGMENT
$T1 = -200						; size = 4
__Obj$ = 8						; size = 4
_<_Args_0>$ = 12					; size = 4
??$_Construct_in_place@U_Container_proxy@std@@PAU_Container_base12@2@@std@@YAXAAU_Container_proxy@0@$$QAPAU_Container_base12@0@@Z PROC ; std::_Construct_in_place<std::_Container_proxy,std::_Container_base12 *>, COMDAT

; 399  :     is_nothrow_constructible_v<_Ty, _Types...>) {

  00000	55		 push	 ebp
  00001	8b ec		 mov	 ebp, esp
  00003	81 ec cc 00 00
	00		 sub	 esp, 204		; 000000ccH
  00009	53		 push	 ebx
  0000a	56		 push	 esi
  0000b	57		 push	 edi
  0000c	8d 7d f4	 lea	 edi, DWORD PTR [ebp-12]
  0000f	b9 03 00 00 00	 mov	 ecx, 3
  00014	b8 cc cc cc cc	 mov	 eax, -858993460		; ccccccccH
  00019	f3 ab		 rep stosd
  0001b	b9 00 00 00 00	 mov	 ecx, OFFSET __EC88E9B5_xutility
  00020	e8 00 00 00 00	 call	 @__CheckForDebuggerJustMyCode@4
  00025	90		 npad	 1

; 400  : #if _HAS_CXX20
; 401  :     if (_STD is_constant_evaluated()) {
; 402  :         _STD construct_at(_STD addressof(_Obj), _STD forward<_Types>(_Args)...);
; 403  :     } else
; 404  : #endif // _HAS_CXX20
; 405  :     {
; 406  :         ::new (static_cast<void*>(_STD addressof(_Obj))) _Ty(_STD forward<_Types>(_Args)...);

  00026	8b 45 08	 mov	 eax, DWORD PTR __Obj$[ebp]
  00029	50		 push	 eax
  0002a	e8 00 00 00 00	 call	 ??$addressof@U_Container_proxy@std@@@std@@YAPAU_Container_proxy@0@AAU10@@Z ; std::addressof<std::_Container_proxy>
  0002f	83 c4 04	 add	 esp, 4
  00032	50		 push	 eax
  00033	6a 08		 push	 8
  00035	e8 00 00 00 00	 call	 ??2@YAPAXIPAX@Z		; operator new
  0003a	83 c4 08	 add	 esp, 8
  0003d	89 85 38 ff ff
	ff		 mov	 DWORD PTR $T1[ebp], eax
  00043	8b 4d 0c	 mov	 ecx, DWORD PTR _<_Args_0>$[ebp]
  00046	8b 11		 mov	 edx, DWORD PTR [ecx]
  00048	52		 push	 edx
  00049	8b 8d 38 ff ff
	ff		 mov	 ecx, DWORD PTR $T1[ebp]
  0004f	e8 00 00 00 00	 call	 ??0_Container_proxy@std@@QAE@PAU_Container_base12@1@@Z ; std::_Container_proxy::_Container_proxy
  00054	90		 npad	 1

; 407  :     }
; 408  : }

  00055	5f		 pop	 edi
  00056	5e		 pop	 esi
  00057	5b		 pop	 ebx
  00058	81 c4 cc 00 00
	00		 add	 esp, 204		; 000000ccH
  0005e	3b ec		 cmp	 ebp, esp
  00060	e8 00 00 00 00	 call	 __RTC_CheckEsp
  00065	8b e5		 mov	 esp, ebp
  00067	5d		 pop	 ebp
  00068	c3		 ret	 0
??$_Construct_in_place@U_Container_proxy@std@@PAU_Container_base12@2@@std@@YAXAAU_Container_proxy@0@$$QAPAU_Container_base12@0@@Z ENDP ; std::_Construct_in_place<std::_Container_proxy,std::_Container_base12 *>
_TEXT	ENDS
; Function compile flags: /Odtp /RTCsu /ZI
; File C:\Program Files\Microsoft Visual Studio\2022\Community\VC\Tools\MSVC\14.42.34433\include\type_traits
;	COMDAT ??$addressof@U_Container_base12@std@@@std@@YAPAU_Container_base12@0@AAU10@@Z
_TEXT	SEGMENT
__Val$ = 8						; size = 4
??$addressof@U_Container_base12@std@@@std@@YAPAU_Container_base12@0@AAU10@@Z PROC ; std::addressof<std::_Container_base12>, COMDAT

; 1549 : _NODISCARD constexpr _Ty* addressof(_Ty& _Val) noexcept {

  00000	55		 push	 ebp
  00001	8b ec		 mov	 ebp, esp
  00003	81 ec c0 00 00
	00		 sub	 esp, 192		; 000000c0H
  00009	53		 push	 ebx
  0000a	56		 push	 esi
  0000b	57		 push	 edi
  0000c	8b fd		 mov	 edi, ebp
  0000e	33 c9		 xor	 ecx, ecx
  00010	b8 cc cc cc cc	 mov	 eax, -858993460		; ccccccccH
  00015	f3 ab		 rep stosd
  00017	b9 00 00 00 00	 mov	 ecx, OFFSET __4C58012B_type_traits
  0001c	e8 00 00 00 00	 call	 @__CheckForDebuggerJustMyCode@4
  00021	90		 npad	 1

; 1550 :     return __builtin_addressof(_Val);

  00022	8b 45 08	 mov	 eax, DWORD PTR __Val$[ebp]

; 1551 : }

  00025	5f		 pop	 edi
  00026	5e		 pop	 esi
  00027	5b		 pop	 ebx
  00028	81 c4 c0 00 00
	00		 add	 esp, 192		; 000000c0H
  0002e	3b ec		 cmp	 ebp, esp
  00030	e8 00 00 00 00	 call	 __RTC_CheckEsp
  00035	8b e5		 mov	 esp, ebp
  00037	5d		 pop	 ebp
  00038	c3		 ret	 0
??$addressof@U_Container_base12@std@@@std@@YAPAU_Container_base12@0@AAU10@@Z ENDP ; std::addressof<std::_Container_base12>
_TEXT	ENDS
; Function compile flags: /Odtp /RTCsu /ZI
; File C:\Program Files\Microsoft Visual Studio\2022\Community\VC\Tools\MSVC\14.42.34433\include\xmemory
;	COMDAT ??0_Basic_container_proxy_ptr12@std@@IAE@XZ
_TEXT	SEGMENT
_this$ = -8						; size = 4
??0_Basic_container_proxy_ptr12@std@@IAE@XZ PROC	; std::_Basic_container_proxy_ptr12::_Basic_container_proxy_ptr12, COMDAT
; _this$ = ecx

; 1429 :     _CONSTEXPR20 _Basic_container_proxy_ptr12()                       = default;

  00000	55		 push	 ebp
  00001	8b ec		 mov	 ebp, esp
  00003	81 ec cc 00 00
	00		 sub	 esp, 204		; 000000ccH
  00009	53		 push	 ebx
  0000a	56		 push	 esi
  0000b	57		 push	 edi
  0000c	51		 push	 ecx
  0000d	8d 7d f4	 lea	 edi, DWORD PTR [ebp-12]
  00010	b9 03 00 00 00	 mov	 ecx, 3
  00015	b8 cc cc cc cc	 mov	 eax, -858993460		; ccccccccH
  0001a	f3 ab		 rep stosd
  0001c	59		 pop	 ecx
  0001d	89 4d f8	 mov	 DWORD PTR _this$[ebp], ecx
  00020	b9 00 00 00 00	 mov	 ecx, OFFSET __03BD3355_xmemory
  00025	e8 00 00 00 00	 call	 @__CheckForDebuggerJustMyCode@4
  0002a	90		 npad	 1

; 1422 :     _Container_proxy* _Ptr = nullptr;

  0002b	8b 45 f8	 mov	 eax, DWORD PTR _this$[ebp]
  0002e	c7 00 00 00 00
	00		 mov	 DWORD PTR [eax], 0

; 1429 :     _CONSTEXPR20 _Basic_container_proxy_ptr12()                       = default;

  00034	8b 45 f8	 mov	 eax, DWORD PTR _this$[ebp]
  00037	5f		 pop	 edi
  00038	5e		 pop	 esi
  00039	5b		 pop	 ebx
  0003a	81 c4 cc 00 00
	00		 add	 esp, 204		; 000000ccH
  00040	3b ec		 cmp	 ebp, esp
  00042	e8 00 00 00 00	 call	 __RTC_CheckEsp
  00047	8b e5		 mov	 esp, ebp
  00049	5d		 pop	 ebp
  0004a	c3		 ret	 0
??0_Basic_container_proxy_ptr12@std@@IAE@XZ ENDP	; std::_Basic_container_proxy_ptr12::_Basic_container_proxy_ptr12
_TEXT	ENDS
; Function compile flags: /Odtp /RTCsu /ZI
; File C:\Program Files\Microsoft Visual Studio\2022\Community\VC\Tools\MSVC\14.42.34433\include\xmemory
;	COMDAT ?_Release@_Basic_container_proxy_ptr12@std@@QAEXXZ
_TEXT	SEGMENT
_this$ = -8						; size = 4
?_Release@_Basic_container_proxy_ptr12@std@@QAEXXZ PROC	; std::_Basic_container_proxy_ptr12::_Release, COMDAT
; _this$ = ecx

; 1424 :     constexpr void _Release() noexcept { // disengage this _Basic_container_proxy_ptr12

  00000	55		 push	 ebp
  00001	8b ec		 mov	 ebp, esp
  00003	81 ec cc 00 00
	00		 sub	 esp, 204		; 000000ccH
  00009	53		 push	 ebx
  0000a	56		 push	 esi
  0000b	57		 push	 edi
  0000c	51		 push	 ecx
  0000d	8d 7d f4	 lea	 edi, DWORD PTR [ebp-12]
  00010	b9 03 00 00 00	 mov	 ecx, 3
  00015	b8 cc cc cc cc	 mov	 eax, -858993460		; ccccccccH
  0001a	f3 ab		 rep stosd
  0001c	59		 pop	 ecx
  0001d	89 4d f8	 mov	 DWORD PTR _this$[ebp], ecx
  00020	b9 00 00 00 00	 mov	 ecx, OFFSET __03BD3355_xmemory
  00025	e8 00 00 00 00	 call	 @__CheckForDebuggerJustMyCode@4
  0002a	90		 npad	 1

; 1425 :         _Ptr = nullptr;

  0002b	8b 45 f8	 mov	 eax, DWORD PTR _this$[ebp]
  0002e	c7 00 00 00 00
	00		 mov	 DWORD PTR [eax], 0

; 1426 :     }

  00034	5f		 pop	 edi
  00035	5e		 pop	 esi
  00036	5b		 pop	 ebx
  00037	81 c4 cc 00 00
	00		 add	 esp, 204		; 000000ccH
  0003d	3b ec		 cmp	 ebp, esp
  0003f	e8 00 00 00 00	 call	 __RTC_CheckEsp
  00044	8b e5		 mov	 esp, ebp
  00046	5d		 pop	 ebp
  00047	c3		 ret	 0
?_Release@_Basic_container_proxy_ptr12@std@@QAEXXZ ENDP	; std::_Basic_container_proxy_ptr12::_Release
_TEXT	ENDS
; Function compile flags: /Odtp /RTCsu /ZI
; File C:\Program Files\Microsoft Visual Studio\2022\Community\VC\Tools\MSVC\14.42.34433\include\utility
;	COMDAT ??$exchange@PAU_Iterator_base12@std@@$$T@std@@YAPAU_Iterator_base12@0@AAPAU10@$$QA$$T@Z
_TEXT	SEGMENT
__Old_val$ = -8						; size = 4
__Val$ = 8						; size = 4
__New_val$ = 12						; size = 4
??$exchange@PAU_Iterator_base12@std@@$$T@std@@YAPAU_Iterator_base12@0@AAPAU10@$$QA$$T@Z PROC ; std::exchange<std::_Iterator_base12 *,std::nullptr_t>, COMDAT

; 762  :     conjunction_v<is_nothrow_move_constructible<_Ty>, is_nothrow_assignable<_Ty&, _Other>>) {

  00000	55		 push	 ebp
  00001	8b ec		 mov	 ebp, esp
  00003	81 ec cc 00 00
	00		 sub	 esp, 204		; 000000ccH
  00009	53		 push	 ebx
  0000a	56		 push	 esi
  0000b	57		 push	 edi
  0000c	8d 7d f4	 lea	 edi, DWORD PTR [ebp-12]
  0000f	b9 03 00 00 00	 mov	 ecx, 3
  00014	b8 cc cc cc cc	 mov	 eax, -858993460		; ccccccccH
  00019	f3 ab		 rep stosd
  0001b	b9 00 00 00 00	 mov	 ecx, OFFSET __69285096_utility
  00020	e8 00 00 00 00	 call	 @__CheckForDebuggerJustMyCode@4
  00025	90		 npad	 1

; 763  :     // assign _New_val to _Val, return previous _Val
; 764  :     _Ty _Old_val = static_cast<_Ty&&>(_Val);

  00026	8b 45 08	 mov	 eax, DWORD PTR __Val$[ebp]
  00029	8b 08		 mov	 ecx, DWORD PTR [eax]
  0002b	89 4d f8	 mov	 DWORD PTR __Old_val$[ebp], ecx

; 765  :     _Val         = static_cast<_Other&&>(_New_val);

  0002e	8b 45 08	 mov	 eax, DWORD PTR __Val$[ebp]
  00031	8b 4d 0c	 mov	 ecx, DWORD PTR __New_val$[ebp]
  00034	8b 11		 mov	 edx, DWORD PTR [ecx]
  00036	89 10		 mov	 DWORD PTR [eax], edx

; 766  :     return _Old_val;

  00038	8b 45 f8	 mov	 eax, DWORD PTR __Old_val$[ebp]

; 767  : }

  0003b	5f		 pop	 edi
  0003c	5e		 pop	 esi
  0003d	5b		 pop	 ebx
  0003e	81 c4 cc 00 00
	00		 add	 esp, 204		; 000000ccH
  00044	3b ec		 cmp	 ebp, esp
  00046	e8 00 00 00 00	 call	 __RTC_CheckEsp
  0004b	8b e5		 mov	 esp, ebp
  0004d	5d		 pop	 ebp
  0004e	c3		 ret	 0
??$exchange@PAU_Iterator_base12@std@@$$T@std@@YAPAU_Iterator_base12@0@AAPAU10@$$QA$$T@Z ENDP ; std::exchange<std::_Iterator_base12 *,std::nullptr_t>
_TEXT	ENDS
; Function compile flags: /Odtp /RTCsu /ZI
; File C:\Program Files\Microsoft Visual Studio\2022\Community\VC\Tools\MSVC\14.42.34433\include\xmemory
;	COMDAT ?_Orphan_all_locked_v3@_Container_base12@std@@AAEXXZ
_TEXT	SEGMENT
__Lock$ = -24						; size = 4
_this$ = -12						; size = 4
__$ArrayPad$ = -4					; size = 4
?_Orphan_all_locked_v3@_Container_base12@std@@AAEXXZ PROC ; std::_Container_base12::_Orphan_all_locked_v3, COMDAT
; _this$ = ecx

; 1205 :     void _Orphan_all_locked_v3() noexcept {

  00000	55		 push	 ebp
  00001	8b ec		 mov	 ebp, esp
  00003	81 ec dc 00 00
	00		 sub	 esp, 220		; 000000dcH
  00009	53		 push	 ebx
  0000a	56		 push	 esi
  0000b	57		 push	 edi
  0000c	51		 push	 ecx
  0000d	8d 7d e4	 lea	 edi, DWORD PTR [ebp-28]
  00010	b9 07 00 00 00	 mov	 ecx, 7
  00015	b8 cc cc cc cc	 mov	 eax, -858993460		; ccccccccH
  0001a	f3 ab		 rep stosd
  0001c	59		 pop	 ecx
  0001d	a1 00 00 00 00	 mov	 eax, DWORD PTR ___security_cookie
  00022	33 c5		 xor	 eax, ebp
  00024	89 45 fc	 mov	 DWORD PTR __$ArrayPad$[ebp], eax
  00027	89 4d f4	 mov	 DWORD PTR _this$[ebp], ecx
  0002a	b9 00 00 00 00	 mov	 ecx, OFFSET __03BD3355_xmemory
  0002f	e8 00 00 00 00	 call	 @__CheckForDebuggerJustMyCode@4
  00034	90		 npad	 1

; 1206 :         _Lockit _Lock(_LOCK_DEBUG);

  00035	8b f4		 mov	 esi, esp
  00037	6a 03		 push	 3
  00039	8d 4d e8	 lea	 ecx, DWORD PTR __Lock$[ebp]
  0003c	ff 15 00 00 00
	00		 call	 DWORD PTR __imp_??0_Lockit@std@@QAE@H@Z
  00042	3b f4		 cmp	 esi, esp
  00044	e8 00 00 00 00	 call	 __RTC_CheckEsp
  00049	90		 npad	 1

; 1207 :         _Orphan_all_unlocked_v3();

  0004a	8b 4d f4	 mov	 ecx, DWORD PTR _this$[ebp]
  0004d	e8 00 00 00 00	 call	 ?_Orphan_all_unlocked_v3@_Container_base12@std@@AAEXXZ ; std::_Container_base12::_Orphan_all_unlocked_v3
  00052	90		 npad	 1

; 1208 :     }

  00053	8b f4		 mov	 esi, esp
  00055	8d 4d e8	 lea	 ecx, DWORD PTR __Lock$[ebp]
  00058	ff 15 00 00 00
	00		 call	 DWORD PTR __imp_??1_Lockit@std@@QAE@XZ
  0005e	3b f4		 cmp	 esi, esp
  00060	e8 00 00 00 00	 call	 __RTC_CheckEsp
  00065	90		 npad	 1
  00066	52		 push	 edx
  00067	8b cd		 mov	 ecx, ebp
  00069	50		 push	 eax
  0006a	8d 15 00 00 00
	00		 lea	 edx, DWORD PTR $LN6@Orphan_all
  00070	e8 00 00 00 00	 call	 @_RTC_CheckStackVars@8
  00075	58		 pop	 eax
  00076	5a		 pop	 edx
  00077	5f		 pop	 edi
  00078	5e		 pop	 esi
  00079	5b		 pop	 ebx
  0007a	8b 4d fc	 mov	 ecx, DWORD PTR __$ArrayPad$[ebp]
  0007d	33 cd		 xor	 ecx, ebp
  0007f	e8 00 00 00 00	 call	 @__security_check_cookie@4
  00084	81 c4 dc 00 00
	00		 add	 esp, 220		; 000000dcH
  0008a	3b ec		 cmp	 ebp, esp
  0008c	e8 00 00 00 00	 call	 __RTC_CheckEsp
  00091	8b e5		 mov	 esp, ebp
  00093	5d		 pop	 ebp
  00094	c3		 ret	 0
  00095	0f 1f 00	 npad	 3
$LN6@Orphan_all:
  00098	01 00 00 00	 DD	 1
  0009c	00 00 00 00	 DD	 $LN5@Orphan_all
$LN5@Orphan_all:
  000a0	e8 ff ff ff	 DD	 -24			; ffffffe8H
  000a4	04 00 00 00	 DD	 4
  000a8	00 00 00 00	 DD	 $LN4@Orphan_all
$LN4@Orphan_all:
  000ac	5f		 DB	 95			; 0000005fH
  000ad	4c		 DB	 76			; 0000004cH
  000ae	6f		 DB	 111			; 0000006fH
  000af	63		 DB	 99			; 00000063H
  000b0	6b		 DB	 107			; 0000006bH
  000b1	00		 DB	 0
?_Orphan_all_locked_v3@_Container_base12@std@@AAEXXZ ENDP ; std::_Container_base12::_Orphan_all_locked_v3
_TEXT	ENDS
; Function compile flags: /Odtp /RTCsu /ZI
; File C:\Program Files\Microsoft Visual Studio\2022\Community\VC\Tools\MSVC\14.42.34433\include\xmemory
;	COMDAT ?_Orphan_all_unlocked_v3@_Container_base12@std@@AAEXXZ
_TEXT	SEGMENT
$T1 = -224						; size = 4
__Pnext$2 = -20						; size = 4
_this$ = -8						; size = 4
?_Orphan_all_unlocked_v3@_Container_base12@std@@AAEXXZ PROC ; std::_Container_base12::_Orphan_all_unlocked_v3, COMDAT
; _this$ = ecx

; 1345 : _CONSTEXPR20 void _Container_base12::_Orphan_all_unlocked_v3() noexcept {

  00000	55		 push	 ebp
  00001	8b ec		 mov	 ebp, esp
  00003	81 ec e4 00 00
	00		 sub	 esp, 228		; 000000e4H
  00009	53		 push	 ebx
  0000a	56		 push	 esi
  0000b	57		 push	 edi
  0000c	51		 push	 ecx
  0000d	8d 7d dc	 lea	 edi, DWORD PTR [ebp-36]
  00010	b9 09 00 00 00	 mov	 ecx, 9
  00015	b8 cc cc cc cc	 mov	 eax, -858993460		; ccccccccH
  0001a	f3 ab		 rep stosd
  0001c	59		 pop	 ecx
  0001d	89 4d f8	 mov	 DWORD PTR _this$[ebp], ecx
  00020	b9 00 00 00 00	 mov	 ecx, OFFSET __03BD3355_xmemory
  00025	e8 00 00 00 00	 call	 @__CheckForDebuggerJustMyCode@4
  0002a	90		 npad	 1

; 1346 :     if (!_Myproxy) { // no proxy, already done

  0002b	8b 45 f8	 mov	 eax, DWORD PTR _this$[ebp]
  0002e	83 38 00	 cmp	 DWORD PTR [eax], 0
  00031	75 02		 jne	 SHORT $LN5@Orphan_all

; 1347 :         return;

  00033	eb 41		 jmp	 SHORT $LN1@Orphan_all
$LN5@Orphan_all:

; 1348 :     }
; 1349 : 
; 1350 :     // proxy allocated, drain it
; 1351 :     for (auto _Pnext = _STD exchange(_Myproxy->_Myfirstiter, nullptr); _Pnext; _Pnext = _Pnext->_Mynextiter) {

  00035	c7 85 20 ff ff
	ff 00 00 00 00	 mov	 DWORD PTR $T1[ebp], 0
  0003f	8d 85 20 ff ff
	ff		 lea	 eax, DWORD PTR $T1[ebp]
  00045	50		 push	 eax
  00046	8b 4d f8	 mov	 ecx, DWORD PTR _this$[ebp]
  00049	8b 11		 mov	 edx, DWORD PTR [ecx]
  0004b	83 c2 04	 add	 edx, 4
  0004e	52		 push	 edx
  0004f	e8 00 00 00 00	 call	 ??$exchange@PAU_Iterator_base12@std@@$$T@std@@YAPAU_Iterator_base12@0@AAPAU10@$$QA$$T@Z ; std::exchange<std::_Iterator_base12 *,std::nullptr_t>
  00054	83 c4 08	 add	 esp, 8
  00057	89 45 ec	 mov	 DWORD PTR __Pnext$2[ebp], eax
  0005a	eb 09		 jmp	 SHORT $LN4@Orphan_all
$LN2@Orphan_all:
  0005c	8b 45 ec	 mov	 eax, DWORD PTR __Pnext$2[ebp]
  0005f	8b 48 04	 mov	 ecx, DWORD PTR [eax+4]
  00062	89 4d ec	 mov	 DWORD PTR __Pnext$2[ebp], ecx
$LN4@Orphan_all:
  00065	83 7d ec 00	 cmp	 DWORD PTR __Pnext$2[ebp], 0
  00069	74 0b		 je	 SHORT $LN3@Orphan_all

; 1352 :         _Pnext->_Myproxy = nullptr;

  0006b	8b 45 ec	 mov	 eax, DWORD PTR __Pnext$2[ebp]
  0006e	c7 00 00 00 00
	00		 mov	 DWORD PTR [eax], 0

; 1353 :     }

  00074	eb e6		 jmp	 SHORT $LN2@Orphan_all
$LN3@Orphan_all:
$LN1@Orphan_all:

; 1354 : }

  00076	5f		 pop	 edi
  00077	5e		 pop	 esi
  00078	5b		 pop	 ebx
  00079	81 c4 e4 00 00
	00		 add	 esp, 228		; 000000e4H
  0007f	3b ec		 cmp	 ebp, esp
  00081	e8 00 00 00 00	 call	 __RTC_CheckEsp
  00086	8b e5		 mov	 esp, ebp
  00088	5d		 pop	 ebp
  00089	c3		 ret	 0
?_Orphan_all_unlocked_v3@_Container_base12@std@@AAEXXZ ENDP ; std::_Container_base12::_Orphan_all_unlocked_v3
_TEXT	ENDS
; Function compile flags: /Odtp /RTCsu /ZI
; File C:\Program Files\Microsoft Visual Studio\2022\Community\VC\Tools\MSVC\14.42.34433\include\xmemory
;	COMDAT ?_Orphan_all@_Container_base12@std@@QAEXXZ
_TEXT	SEGMENT
_this$ = -8						; size = 4
?_Orphan_all@_Container_base12@std@@QAEXXZ PROC		; std::_Container_base12::_Orphan_all, COMDAT
; _this$ = ecx

; 1356 : _CONSTEXPR20 void _Container_base12::_Orphan_all() noexcept {

  00000	55		 push	 ebp
  00001	8b ec		 mov	 ebp, esp
  00003	81 ec cc 00 00
	00		 sub	 esp, 204		; 000000ccH
  00009	53		 push	 ebx
  0000a	56		 push	 esi
  0000b	57		 push	 edi
  0000c	51		 push	 ecx
  0000d	8d 7d f4	 lea	 edi, DWORD PTR [ebp-12]
  00010	b9 03 00 00 00	 mov	 ecx, 3
  00015	b8 cc cc cc cc	 mov	 eax, -858993460		; ccccccccH
  0001a	f3 ab		 rep stosd
  0001c	59		 pop	 ecx
  0001d	89 4d f8	 mov	 DWORD PTR _this$[ebp], ecx
  00020	b9 00 00 00 00	 mov	 ecx, OFFSET __03BD3355_xmemory
  00025	e8 00 00 00 00	 call	 @__CheckForDebuggerJustMyCode@4
  0002a	90		 npad	 1

; 1357 : #if _ITERATOR_DEBUG_LEVEL == 2
; 1358 : #if _HAS_CXX20
; 1359 :     if (_STD is_constant_evaluated()) {
; 1360 :         _Orphan_all_unlocked_v3();
; 1361 :     } else
; 1362 : #endif // _HAS_CXX20
; 1363 :     {
; 1364 :         _Orphan_all_locked_v3();

  0002b	8b 4d f8	 mov	 ecx, DWORD PTR _this$[ebp]
  0002e	e8 00 00 00 00	 call	 ?_Orphan_all_locked_v3@_Container_base12@std@@AAEXXZ ; std::_Container_base12::_Orphan_all_locked_v3
  00033	90		 npad	 1

; 1365 :     }
; 1366 : #endif // _ITERATOR_DEBUG_LEVEL == 2
; 1367 : }

  00034	5f		 pop	 edi
  00035	5e		 pop	 esi
  00036	5b		 pop	 ebx
  00037	81 c4 cc 00 00
	00		 add	 esp, 204		; 000000ccH
  0003d	3b ec		 cmp	 ebp, esp
  0003f	e8 00 00 00 00	 call	 __RTC_CheckEsp
  00044	8b e5		 mov	 esp, ebp
  00046	5d		 pop	 ebp
  00047	c3		 ret	 0
?_Orphan_all@_Container_base12@std@@QAEXXZ ENDP		; std::_Container_base12::_Orphan_all
_TEXT	ENDS
; Function compile flags: /Odtp /RTCsu /ZI
; File C:\Program Files\Microsoft Visual Studio\2022\Community\VC\Tools\MSVC\14.42.34433\include\xmemory
;	COMDAT ??0_Container_base12@std@@QAE@XZ
_TEXT	SEGMENT
_this$ = -8						; size = 4
??0_Container_base12@std@@QAE@XZ PROC			; std::_Container_base12::_Container_base12, COMDAT
; _this$ = ecx

; 1174 :     _CONSTEXPR20 _Container_base12() noexcept = default;

  00000	55		 push	 ebp
  00001	8b ec		 mov	 ebp, esp
  00003	81 ec cc 00 00
	00		 sub	 esp, 204		; 000000ccH
  00009	53		 push	 ebx
  0000a	56		 push	 esi
  0000b	57		 push	 edi
  0000c	51		 push	 ecx
  0000d	8d 7d f4	 lea	 edi, DWORD PTR [ebp-12]
  00010	b9 03 00 00 00	 mov	 ecx, 3
  00015	b8 cc cc cc cc	 mov	 eax, -858993460		; ccccccccH
  0001a	f3 ab		 rep stosd
  0001c	59		 pop	 ecx
  0001d	89 4d f8	 mov	 DWORD PTR _this$[ebp], ecx
  00020	b9 00 00 00 00	 mov	 ecx, OFFSET __03BD3355_xmemory
  00025	e8 00 00 00 00	 call	 @__CheckForDebuggerJustMyCode@4
  0002a	90		 npad	 1

; 1175 : 
; 1176 :     _Container_base12(const _Container_base12&)            = delete;
; 1177 :     _Container_base12& operator=(const _Container_base12&) = delete;
; 1178 : 
; 1179 :     _CONSTEXPR20 void _Orphan_all() noexcept;
; 1180 :     _CONSTEXPR20 void _Swap_proxy_and_iterators(_Container_base12&) noexcept;
; 1181 : 
; 1182 :     template <class _Alloc>
; 1183 :     _CONSTEXPR20 void _Alloc_proxy(_Alloc&& _Al) {
; 1184 :         _Container_proxy* const _New_proxy = _Unfancy(_Al.allocate(1));
; 1185 :         _Construct_in_place(*_New_proxy, this);
; 1186 :         _Myproxy            = _New_proxy;
; 1187 :         _New_proxy->_Mycont = this;
; 1188 :     }
; 1189 : 
; 1190 :     template <class _Alloc>
; 1191 :     _CONSTEXPR20 void _Reload_proxy(_Alloc&& _Old_alloc, _Alloc&& _New_alloc) {
; 1192 :         // pre: no iterators refer to the existing proxy
; 1193 :         _Container_proxy* const _New_proxy = _Unfancy(_New_alloc.allocate(1));
; 1194 :         _Construct_in_place(*_New_proxy, this);
; 1195 :         _New_proxy->_Mycont = this;
; 1196 :         _Delete_plain_internal(_Old_alloc, _STD exchange(_Myproxy, _New_proxy));
; 1197 :     }
; 1198 : 
; 1199 :     _Container_proxy* _Myproxy = nullptr;

  0002b	8b 45 f8	 mov	 eax, DWORD PTR _this$[ebp]
  0002e	c7 00 00 00 00
	00		 mov	 DWORD PTR [eax], 0

; 1174 :     _CONSTEXPR20 _Container_base12() noexcept = default;

  00034	8b 45 f8	 mov	 eax, DWORD PTR _this$[ebp]
  00037	5f		 pop	 edi
  00038	5e		 pop	 esi
  00039	5b		 pop	 ebx
  0003a	81 c4 cc 00 00
	00		 add	 esp, 204		; 000000ccH
  00040	3b ec		 cmp	 ebp, esp
  00042	e8 00 00 00 00	 call	 __RTC_CheckEsp
  00047	8b e5		 mov	 esp, ebp
  00049	5d		 pop	 ebp
  0004a	c3		 ret	 0
??0_Container_base12@std@@QAE@XZ ENDP			; std::_Container_base12::_Container_base12
_TEXT	ENDS
; Function compile flags: /Odtp /RTCsu /ZI
; File C:\Program Files\Microsoft Visual Studio\2022\Community\VC\Tools\MSVC\14.42.34433\include\xmemory
;	COMDAT ??0_Container_proxy@std@@QAE@PAU_Container_base12@1@@Z
_TEXT	SEGMENT
_this$ = -8						; size = 4
__Mycont_$ = 8						; size = 4
??0_Container_proxy@std@@QAE@PAU_Container_base12@1@@Z PROC ; std::_Container_proxy::_Container_proxy, COMDAT
; _this$ = ecx

; 1166 :     _CONSTEXPR20 _Container_proxy(_Container_base12* _Mycont_) noexcept : _Mycont(_Mycont_) {}

  00000	55		 push	 ebp
  00001	8b ec		 mov	 ebp, esp
  00003	81 ec cc 00 00
	00		 sub	 esp, 204		; 000000ccH
  00009	53		 push	 ebx
  0000a	56		 push	 esi
  0000b	57		 push	 edi
  0000c	51		 push	 ecx
  0000d	8d 7d f4	 lea	 edi, DWORD PTR [ebp-12]
  00010	b9 03 00 00 00	 mov	 ecx, 3
  00015	b8 cc cc cc cc	 mov	 eax, -858993460		; ccccccccH
  0001a	f3 ab		 rep stosd
  0001c	59		 pop	 ecx
  0001d	89 4d f8	 mov	 DWORD PTR _this$[ebp], ecx
  00020	b9 00 00 00 00	 mov	 ecx, OFFSET __03BD3355_xmemory
  00025	e8 00 00 00 00	 call	 @__CheckForDebuggerJustMyCode@4
  0002a	90		 npad	 1
  0002b	8b 45 f8	 mov	 eax, DWORD PTR _this$[ebp]
  0002e	8b 4d 08	 mov	 ecx, DWORD PTR __Mycont_$[ebp]
  00031	89 08		 mov	 DWORD PTR [eax], ecx

; 1167 : 
; 1168 :     const _Container_base12* _Mycont       = nullptr;
; 1169 :     mutable _Iterator_base12* _Myfirstiter = nullptr;

  00033	8b 45 f8	 mov	 eax, DWORD PTR _this$[ebp]
  00036	c7 40 04 00 00
	00 00		 mov	 DWORD PTR [eax+4], 0

; 1166 :     _CONSTEXPR20 _Container_proxy(_Container_base12* _Mycont_) noexcept : _Mycont(_Mycont_) {}

  0003d	8b 45 f8	 mov	 eax, DWORD PTR _this$[ebp]
  00040	5f		 pop	 edi
  00041	5e		 pop	 esi
  00042	5b		 pop	 ebx
  00043	81 c4 cc 00 00
	00		 add	 esp, 204		; 000000ccH
  00049	3b ec		 cmp	 ebp, esp
  0004b	e8 00 00 00 00	 call	 __RTC_CheckEsp
  00050	8b e5		 mov	 esp, ebp
  00052	5d		 pop	 ebp
  00053	c2 04 00	 ret	 4
??0_Container_proxy@std@@QAE@PAU_Container_base12@1@@Z ENDP ; std::_Container_proxy::_Container_proxy
_TEXT	ENDS
; Function compile flags: /Odtp /RTCsu /ZI
; File C:\Program Files\Microsoft Visual Studio\2022\Community\VC\Tools\MSVC\14.42.34433\include\xmemory
;	COMDAT ?_Adjust_manually_vector_aligned@std@@YAXAAPAXAAI@Z
_TEXT	SEGMENT
__Back_shift$ = -44					; size = 4
__Min_back_shift$ = -32					; size = 4
__Ptr_container$ = -20					; size = 4
__Ptr_user$ = -8					; size = 4
__Ptr$ = 8						; size = 4
__Bytes$ = 12						; size = 4
?_Adjust_manually_vector_aligned@std@@YAXAAPAXAAI@Z PROC ; std::_Adjust_manually_vector_aligned, COMDAT

; 169  : inline void _Adjust_manually_vector_aligned(void*& _Ptr, size_t& _Bytes) {

  00000	55		 push	 ebp
  00001	8b ec		 mov	 ebp, esp
  00003	81 ec f0 00 00
	00		 sub	 esp, 240		; 000000f0H
  00009	53		 push	 ebx
  0000a	56		 push	 esi
  0000b	57		 push	 edi
  0000c	8d 7d d0	 lea	 edi, DWORD PTR [ebp-48]
  0000f	b9 0c 00 00 00	 mov	 ecx, 12			; 0000000cH
  00014	b8 cc cc cc cc	 mov	 eax, -858993460		; ccccccccH
  00019	f3 ab		 rep stosd
  0001b	b9 00 00 00 00	 mov	 ecx, OFFSET __03BD3355_xmemory
  00020	e8 00 00 00 00	 call	 @__CheckForDebuggerJustMyCode@4
  00025	90		 npad	 1

; 170  :     // adjust parameters from _Allocate_manually_vector_aligned to pass to operator delete
; 171  :     _Bytes += _Non_user_size;

  00026	8b 45 0c	 mov	 eax, DWORD PTR __Bytes$[ebp]
  00029	8b 08		 mov	 ecx, DWORD PTR [eax]
  0002b	83 c1 27	 add	 ecx, 39			; 00000027H
  0002e	8b 55 0c	 mov	 edx, DWORD PTR __Bytes$[ebp]
  00031	89 0a		 mov	 DWORD PTR [edx], ecx

; 172  : 
; 173  :     const uintptr_t* const _Ptr_user = static_cast<uintptr_t*>(_Ptr);

  00033	8b 45 08	 mov	 eax, DWORD PTR __Ptr$[ebp]
  00036	8b 08		 mov	 ecx, DWORD PTR [eax]
  00038	89 4d f8	 mov	 DWORD PTR __Ptr_user$[ebp], ecx

; 174  :     const uintptr_t _Ptr_container   = _Ptr_user[-1];

  0003b	b8 04 00 00 00	 mov	 eax, 4
  00040	6b c8 ff	 imul	 ecx, eax, -1
  00043	8b 55 f8	 mov	 edx, DWORD PTR __Ptr_user$[ebp]
  00046	8b 04 0a	 mov	 eax, DWORD PTR [edx+ecx]
  00049	89 45 ec	 mov	 DWORD PTR __Ptr_container$[ebp], eax
$LN4@Adjust_man:

; 175  : 
; 176  :     // If the following asserts, it likely means that we are performing
; 177  :     // an aligned delete on memory coming from an unaligned allocation.
; 178  :     _STL_ASSERT(_Ptr_user[-2] == _Big_allocation_sentinel, "invalid argument");

  0004c	b8 04 00 00 00	 mov	 eax, 4
  00051	6b c8 fe	 imul	 ecx, eax, -2
  00054	8b 55 f8	 mov	 edx, DWORD PTR __Ptr_user$[ebp]
  00057	81 3c 0a fa fa
	fa fa		 cmp	 DWORD PTR [edx+ecx], -84215046 ; fafafafaH
  0005e	75 02		 jne	 SHORT $LN14@Adjust_man
  00060	eb 65		 jmp	 SHORT $LN6@Adjust_man
$LN14@Adjust_man:
  00062	8b f4		 mov	 esi, esp
  00064	68 00 00 00 00	 push	 OFFSET ??_C@_0BB@FCMFBGOM@invalid?5argument@
  00069	68 00 00 00 00	 push	 OFFSET ??_C@_02DKCKIIND@?$CFs@
  0006e	6a 00		 push	 0
  00070	a1 00 00 00 00	 mov	 eax, DWORD PTR ?__LINE__Var@?0??_Adjust_manually_vector_aligned@std@@YAXAAPAXAAI@Z@4JA
  00075	83 c0 09	 add	 eax, 9
  00078	50		 push	 eax
  00079	68 00 00 00 00	 push	 OFFSET ??_C@_0GC@KIHIELAM@C?3?2Program?5Files?2Microsoft?5Visu@
  0007e	6a 02		 push	 2
  00080	ff 15 00 00 00
	00		 call	 DWORD PTR __imp___CrtDbgReport
  00086	83 c4 18	 add	 esp, 24			; 00000018H
  00089	3b f4		 cmp	 esi, esp
  0008b	e8 00 00 00 00	 call	 __RTC_CheckEsp
  00090	83 f8 01	 cmp	 eax, 1
  00093	75 01		 jne	 SHORT $LN19@Adjust_man
  00095	cc		 int	 3
$LN19@Adjust_man:
  00096	8b f4		 mov	 esi, esp
  00098	6a 00		 push	 0
  0009a	a1 00 00 00 00	 mov	 eax, DWORD PTR ?__LINE__Var@?0??_Adjust_manually_vector_aligned@std@@YAXAAPAXAAI@Z@4JA
  0009f	83 c0 09	 add	 eax, 9
  000a2	50		 push	 eax
  000a3	68 00 00 00 00	 push	 OFFSET ??_C@_1ME@NMPKGKJL@?$AAC?$AA?3?$AA?2?$AAP?$AAr?$AAo?$AAg?$AAr?$AAa?$AAm?$AA?5?$AAF?$AAi?$AAl?$AAe@
  000a8	68 00 00 00 00	 push	 OFFSET ??_C@_11LOCGONAA@@
  000ad	68 00 00 00 00	 push	 OFFSET ??_C@_1CG@JNLFBNGN@?$AA?$CC?$AAi?$AAn?$AAv?$AAa?$AAl?$AAi?$AAd?$AA?5?$AAa?$AAr?$AAg?$AAu?$AAm?$AAe@
  000b2	ff 15 00 00 00
	00		 call	 DWORD PTR __imp___invalid_parameter
  000b8	83 c4 14	 add	 esp, 20			; 00000014H
  000bb	3b f4		 cmp	 esi, esp
  000bd	e8 00 00 00 00	 call	 __RTC_CheckEsp
  000c2	90		 npad	 1
  000c3	33 c0		 xor	 eax, eax
  000c5	75 9b		 jne	 SHORT $LN14@Adjust_man
$LN6@Adjust_man:
  000c7	33 c0		 xor	 eax, eax
  000c9	75 81		 jne	 SHORT $LN4@Adjust_man

; 179  : 
; 180  :     // Extra paranoia on aligned allocation/deallocation; ensure _Ptr_container is
; 181  :     // in range [_Min_back_shift, _Non_user_size]
; 182  : #ifdef _DEBUG
; 183  :     constexpr uintptr_t _Min_back_shift = 2 * sizeof(void*);

  000cb	c7 45 e0 08 00
	00 00		 mov	 DWORD PTR __Min_back_shift$[ebp], 8

; 184  : #else // ^^^ defined(_DEBUG) / !defined(_DEBUG) vvv
; 185  :     constexpr uintptr_t _Min_back_shift = sizeof(void*);
; 186  : #endif // ^^^ !defined(_DEBUG) ^^^
; 187  :     const uintptr_t _Back_shift = reinterpret_cast<uintptr_t>(_Ptr) - _Ptr_container;

  000d2	8b 45 08	 mov	 eax, DWORD PTR __Ptr$[ebp]
  000d5	8b 08		 mov	 ecx, DWORD PTR [eax]
  000d7	2b 4d ec	 sub	 ecx, DWORD PTR __Ptr_container$[ebp]
  000da	89 4d d4	 mov	 DWORD PTR __Back_shift$[ebp], ecx
$LN10@Adjust_man:

; 188  :     _STL_VERIFY(_Back_shift >= _Min_back_shift && _Back_shift <= _Non_user_size, "invalid argument");

  000dd	83 7d d4 08	 cmp	 DWORD PTR __Back_shift$[ebp], 8
  000e1	72 08		 jb	 SHORT $LN16@Adjust_man
  000e3	83 7d d4 27	 cmp	 DWORD PTR __Back_shift$[ebp], 39 ; 00000027H
  000e7	77 02		 ja	 SHORT $LN16@Adjust_man
  000e9	eb 65		 jmp	 SHORT $LN12@Adjust_man
$LN16@Adjust_man:
  000eb	8b f4		 mov	 esi, esp
  000ed	68 00 00 00 00	 push	 OFFSET ??_C@_0BB@FCMFBGOM@invalid?5argument@
  000f2	68 00 00 00 00	 push	 OFFSET ??_C@_02DKCKIIND@?$CFs@
  000f7	6a 00		 push	 0
  000f9	a1 00 00 00 00	 mov	 eax, DWORD PTR ?__LINE__Var@?0??_Adjust_manually_vector_aligned@std@@YAXAAPAXAAI@Z@4JA
  000fe	83 c0 13	 add	 eax, 19			; 00000013H
  00101	50		 push	 eax
  00102	68 00 00 00 00	 push	 OFFSET ??_C@_0GC@KIHIELAM@C?3?2Program?5Files?2Microsoft?5Visu@
  00107	6a 02		 push	 2
  00109	ff 15 00 00 00
	00		 call	 DWORD PTR __imp___CrtDbgReport
  0010f	83 c4 18	 add	 esp, 24			; 00000018H
  00112	3b f4		 cmp	 esi, esp
  00114	e8 00 00 00 00	 call	 __RTC_CheckEsp
  00119	83 f8 01	 cmp	 eax, 1
  0011c	75 01		 jne	 SHORT $LN20@Adjust_man
  0011e	cc		 int	 3
$LN20@Adjust_man:
  0011f	8b f4		 mov	 esi, esp
  00121	6a 00		 push	 0
  00123	a1 00 00 00 00	 mov	 eax, DWORD PTR ?__LINE__Var@?0??_Adjust_manually_vector_aligned@std@@YAXAAPAXAAI@Z@4JA
  00128	83 c0 13	 add	 eax, 19			; 00000013H
  0012b	50		 push	 eax
  0012c	68 00 00 00 00	 push	 OFFSET ??_C@_1ME@NMPKGKJL@?$AAC?$AA?3?$AA?2?$AAP?$AAr?$AAo?$AAg?$AAr?$AAa?$AAm?$AA?5?$AAF?$AAi?$AAl?$AAe@
  00131	68 00 00 00 00	 push	 OFFSET ??_C@_11LOCGONAA@@
  00136	68 00 00 00 00	 push	 OFFSET ??_C@_1CG@JNLFBNGN@?$AA?$CC?$AAi?$AAn?$AAv?$AAa?$AAl?$AAi?$AAd?$AA?5?$AAa?$AAr?$AAg?$AAu?$AAm?$AAe@
  0013b	ff 15 00 00 00
	00		 call	 DWORD PTR __imp___invalid_parameter
  00141	83 c4 14	 add	 esp, 20			; 00000014H
  00144	3b f4		 cmp	 esi, esp
  00146	e8 00 00 00 00	 call	 __RTC_CheckEsp
  0014b	90		 npad	 1
  0014c	33 c0		 xor	 eax, eax
  0014e	75 9b		 jne	 SHORT $LN16@Adjust_man
$LN12@Adjust_man:
  00150	33 c0		 xor	 eax, eax
  00152	75 89		 jne	 SHORT $LN10@Adjust_man

; 189  :     _Ptr = reinterpret_cast<void*>(_Ptr_container);

  00154	8b 45 08	 mov	 eax, DWORD PTR __Ptr$[ebp]
  00157	8b 4d ec	 mov	 ecx, DWORD PTR __Ptr_container$[ebp]
  0015a	89 08		 mov	 DWORD PTR [eax], ecx

; 190  : }

  0015c	5f		 pop	 edi
  0015d	5e		 pop	 esi
  0015e	5b		 pop	 ebx
  0015f	81 c4 f0 00 00
	00		 add	 esp, 240		; 000000f0H
  00165	3b ec		 cmp	 ebp, esp
  00167	e8 00 00 00 00	 call	 __RTC_CheckEsp
  0016c	8b e5		 mov	 esp, ebp
  0016e	5d		 pop	 ebp
  0016f	c3		 ret	 0
?_Adjust_manually_vector_aligned@std@@YAXAAPAXAAI@Z ENDP ; std::_Adjust_manually_vector_aligned
_TEXT	ENDS
; Function compile flags: /Odtp /RTCsu /ZI
; File C:\Program Files\Microsoft Visual Studio\2022\Community\VC\Tools\MSVC\14.42.34433\include\xmemory
;	COMDAT ?_Allocate@_Default_allocate_traits@std@@SAPAXI@Z
_TEXT	SEGMENT
__Bytes$ = 8						; size = 4
?_Allocate@_Default_allocate_traits@std@@SAPAXI@Z PROC	; std::_Default_allocate_traits::_Allocate, COMDAT

; 100  :         void* _Allocate(const size_t _Bytes) {

  00000	55		 push	 ebp
  00001	8b ec		 mov	 ebp, esp
  00003	81 ec c0 00 00
	00		 sub	 esp, 192		; 000000c0H
  00009	53		 push	 ebx
  0000a	56		 push	 esi
  0000b	57		 push	 edi
  0000c	8b fd		 mov	 edi, ebp
  0000e	33 c9		 xor	 ecx, ecx
  00010	b8 cc cc cc cc	 mov	 eax, -858993460		; ccccccccH
  00015	f3 ab		 rep stosd
  00017	b9 00 00 00 00	 mov	 ecx, OFFSET __03BD3355_xmemory
  0001c	e8 00 00 00 00	 call	 @__CheckForDebuggerJustMyCode@4
  00021	90		 npad	 1

; 101  :         return ::operator new(_Bytes);

  00022	8b 45 08	 mov	 eax, DWORD PTR __Bytes$[ebp]
  00025	50		 push	 eax
  00026	e8 00 00 00 00	 call	 ??2@YAPAXI@Z		; operator new
  0002b	83 c4 04	 add	 esp, 4

; 102  :     }

  0002e	5f		 pop	 edi
  0002f	5e		 pop	 esi
  00030	5b		 pop	 ebx
  00031	81 c4 c0 00 00
	00		 add	 esp, 192		; 000000c0H
  00037	3b ec		 cmp	 ebp, esp
  00039	e8 00 00 00 00	 call	 __RTC_CheckEsp
  0003e	8b e5		 mov	 esp, ebp
  00040	5d		 pop	 ebp
  00041	c3		 ret	 0
?_Allocate@_Default_allocate_traits@std@@SAPAXI@Z ENDP	; std::_Default_allocate_traits::_Allocate
_TEXT	ENDS
; Function compile flags: /Odtp /RTCsu /ZI
; File C:\Program Files\Microsoft Visual Studio\2022\Community\VC\Tools\MSVC\14.42.34433\include\xmemory
;	COMDAT ?_Throw_bad_array_new_length@std@@YAXXZ
_TEXT	SEGMENT
$T1 = -208						; size = 12
?_Throw_bad_array_new_length@std@@YAXXZ PROC		; std::_Throw_bad_array_new_length, COMDAT

; 74   : [[noreturn]] inline void _Throw_bad_array_new_length() {

  00000	55		 push	 ebp
  00001	8b ec		 mov	 ebp, esp
  00003	81 ec d4 00 00
	00		 sub	 esp, 212		; 000000d4H
  00009	53		 push	 ebx
  0000a	56		 push	 esi
  0000b	57		 push	 edi
  0000c	8d 7d ec	 lea	 edi, DWORD PTR [ebp-20]
  0000f	b9 05 00 00 00	 mov	 ecx, 5
  00014	b8 cc cc cc cc	 mov	 eax, -858993460		; ccccccccH
  00019	f3 ab		 rep stosd
  0001b	b9 00 00 00 00	 mov	 ecx, OFFSET __03BD3355_xmemory
  00020	e8 00 00 00 00	 call	 @__CheckForDebuggerJustMyCode@4
  00025	90		 npad	 1

; 75   :     _THROW(bad_array_new_length{});

  00026	8d 8d 30 ff ff
	ff		 lea	 ecx, DWORD PTR $T1[ebp]
  0002c	e8 00 00 00 00	 call	 ??0bad_array_new_length@std@@QAE@XZ ; std::bad_array_new_length::bad_array_new_length
  00031	68 00 00 00 00	 push	 OFFSET __TI3?AVbad_array_new_length@std@@
  00036	8d 85 30 ff ff
	ff		 lea	 eax, DWORD PTR $T1[ebp]
  0003c	50		 push	 eax
  0003d	e8 00 00 00 00	 call	 __CxxThrowException@8
  00042	90		 npad	 1
$LN1@Throw_bad_:

; 76   : }

  00043	5f		 pop	 edi
  00044	5e		 pop	 esi
  00045	5b		 pop	 ebx
  00046	81 c4 d4 00 00
	00		 add	 esp, 212		; 000000d4H
  0004c	3b ec		 cmp	 ebp, esp
  0004e	e8 00 00 00 00	 call	 __RTC_CheckEsp
  00053	8b e5		 mov	 esp, ebp
  00055	5d		 pop	 ebp
  00056	c3		 ret	 0
?_Throw_bad_array_new_length@std@@YAXXZ ENDP		; std::_Throw_bad_array_new_length
_TEXT	ENDS
; Function compile flags: /Odtp /RTCsu /ZI
;	COMDAT ??_Gbad_array_new_length@std@@UAEPAXI@Z
_TEXT	SEGMENT
_this$ = -8						; size = 4
___flags$ = 8						; size = 4
??_Gbad_array_new_length@std@@UAEPAXI@Z PROC		; std::bad_array_new_length::`scalar deleting destructor', COMDAT
; _this$ = ecx
  00000	55		 push	 ebp
  00001	8b ec		 mov	 ebp, esp
  00003	81 ec cc 00 00
	00		 sub	 esp, 204		; 000000ccH
  00009	53		 push	 ebx
  0000a	56		 push	 esi
  0000b	57		 push	 edi
  0000c	51		 push	 ecx
  0000d	8d 7d f4	 lea	 edi, DWORD PTR [ebp-12]
  00010	b9 03 00 00 00	 mov	 ecx, 3
  00015	b8 cc cc cc cc	 mov	 eax, -858993460		; ccccccccH
  0001a	f3 ab		 rep stosd
  0001c	59		 pop	 ecx
  0001d	89 4d f8	 mov	 DWORD PTR _this$[ebp], ecx
  00020	8b 4d f8	 mov	 ecx, DWORD PTR _this$[ebp]
  00023	e8 00 00 00 00	 call	 ??1bad_array_new_length@std@@UAE@XZ
  00028	90		 npad	 1
  00029	8b 45 08	 mov	 eax, DWORD PTR ___flags$[ebp]
  0002c	83 e0 01	 and	 eax, 1
  0002f	74 0e		 je	 SHORT $LN2@scalar
  00031	6a 0c		 push	 12			; 0000000cH
  00033	8b 45 f8	 mov	 eax, DWORD PTR _this$[ebp]
  00036	50		 push	 eax
  00037	e8 00 00 00 00	 call	 ??3@YAXPAXI@Z		; operator delete
  0003c	83 c4 08	 add	 esp, 8
$LN2@scalar:
  0003f	8b 45 f8	 mov	 eax, DWORD PTR _this$[ebp]
  00042	5f		 pop	 edi
  00043	5e		 pop	 esi
  00044	5b		 pop	 ebx
  00045	81 c4 cc 00 00
	00		 add	 esp, 204		; 000000ccH
  0004b	3b ec		 cmp	 ebp, esp
  0004d	e8 00 00 00 00	 call	 __RTC_CheckEsp
  00052	8b e5		 mov	 esp, ebp
  00054	5d		 pop	 ebp
  00055	c2 04 00	 ret	 4
??_Gbad_array_new_length@std@@UAEPAXI@Z ENDP		; std::bad_array_new_length::`scalar deleting destructor'
_TEXT	ENDS
; Function compile flags: /Odtp /RTCsu /ZI
;	COMDAT ??0bad_array_new_length@std@@QAE@ABV01@@Z
_TEXT	SEGMENT
_this$ = -8						; size = 4
___that$ = 8						; size = 4
??0bad_array_new_length@std@@QAE@ABV01@@Z PROC		; std::bad_array_new_length::bad_array_new_length, COMDAT
; _this$ = ecx
  00000	55		 push	 ebp
  00001	8b ec		 mov	 ebp, esp
  00003	81 ec cc 00 00
	00		 sub	 esp, 204		; 000000ccH
  00009	53		 push	 ebx
  0000a	56		 push	 esi
  0000b	57		 push	 edi
  0000c	51		 push	 ecx
  0000d	8d 7d f4	 lea	 edi, DWORD PTR [ebp-12]
  00010	b9 03 00 00 00	 mov	 ecx, 3
  00015	b8 cc cc cc cc	 mov	 eax, -858993460		; ccccccccH
  0001a	f3 ab		 rep stosd
  0001c	59		 pop	 ecx
  0001d	89 4d f8	 mov	 DWORD PTR _this$[ebp], ecx
  00020	8b 45 08	 mov	 eax, DWORD PTR ___that$[ebp]
  00023	50		 push	 eax
  00024	8b 4d f8	 mov	 ecx, DWORD PTR _this$[ebp]
  00027	e8 00 00 00 00	 call	 ??0bad_alloc@std@@QAE@ABV01@@Z
  0002c	90		 npad	 1
  0002d	8b 45 f8	 mov	 eax, DWORD PTR _this$[ebp]
  00030	c7 00 00 00 00
	00		 mov	 DWORD PTR [eax], OFFSET ??_7bad_array_new_length@std@@6B@
  00036	8b 45 f8	 mov	 eax, DWORD PTR _this$[ebp]
  00039	5f		 pop	 edi
  0003a	5e		 pop	 esi
  0003b	5b		 pop	 ebx
  0003c	81 c4 cc 00 00
	00		 add	 esp, 204		; 000000ccH
  00042	3b ec		 cmp	 ebp, esp
  00044	e8 00 00 00 00	 call	 __RTC_CheckEsp
  00049	8b e5		 mov	 esp, ebp
  0004b	5d		 pop	 ebp
  0004c	c2 04 00	 ret	 4
??0bad_array_new_length@std@@QAE@ABV01@@Z ENDP		; std::bad_array_new_length::bad_array_new_length
_TEXT	ENDS
; Function compile flags: /Odtp /RTCsu /ZI
;	COMDAT ??1bad_array_new_length@std@@UAE@XZ
_TEXT	SEGMENT
_this$ = -8						; size = 4
??1bad_array_new_length@std@@UAE@XZ PROC		; std::bad_array_new_length::~bad_array_new_length, COMDAT
; _this$ = ecx
  00000	55		 push	 ebp
  00001	8b ec		 mov	 ebp, esp
  00003	81 ec cc 00 00
	00		 sub	 esp, 204		; 000000ccH
  00009	53		 push	 ebx
  0000a	56		 push	 esi
  0000b	57		 push	 edi
  0000c	51		 push	 ecx
  0000d	8d 7d f4	 lea	 edi, DWORD PTR [ebp-12]
  00010	b9 03 00 00 00	 mov	 ecx, 3
  00015	b8 cc cc cc cc	 mov	 eax, -858993460		; ccccccccH
  0001a	f3 ab		 rep stosd
  0001c	59		 pop	 ecx
  0001d	89 4d f8	 mov	 DWORD PTR _this$[ebp], ecx
  00020	8b 4d f8	 mov	 ecx, DWORD PTR _this$[ebp]
  00023	e8 00 00 00 00	 call	 ??1bad_alloc@std@@UAE@XZ
  00028	90		 npad	 1
  00029	5f		 pop	 edi
  0002a	5e		 pop	 esi
  0002b	5b		 pop	 ebx
  0002c	81 c4 cc 00 00
	00		 add	 esp, 204		; 000000ccH
  00032	3b ec		 cmp	 ebp, esp
  00034	e8 00 00 00 00	 call	 __RTC_CheckEsp
  00039	8b e5		 mov	 esp, ebp
  0003b	5d		 pop	 ebp
  0003c	c3		 ret	 0
??1bad_array_new_length@std@@UAE@XZ ENDP		; std::bad_array_new_length::~bad_array_new_length
_TEXT	ENDS
; Function compile flags: /Odtp /RTCsu /ZI
; File C:\Program Files\Microsoft Visual Studio\2022\Community\VC\Tools\MSVC\14.42.34433\include\vcruntime_exception.h
;	COMDAT ??0bad_array_new_length@std@@QAE@XZ
_TEXT	SEGMENT
_this$ = -8						; size = 4
??0bad_array_new_length@std@@QAE@XZ PROC		; std::bad_array_new_length::bad_array_new_length, COMDAT
; _this$ = ecx

; 144  :     {

  00000	55		 push	 ebp
  00001	8b ec		 mov	 ebp, esp
  00003	81 ec cc 00 00
	00		 sub	 esp, 204		; 000000ccH
  00009	53		 push	 ebx
  0000a	56		 push	 esi
  0000b	57		 push	 edi
  0000c	51		 push	 ecx
  0000d	8d 7d f4	 lea	 edi, DWORD PTR [ebp-12]
  00010	b9 03 00 00 00	 mov	 ecx, 3
  00015	b8 cc cc cc cc	 mov	 eax, -858993460		; ccccccccH
  0001a	f3 ab		 rep stosd
  0001c	59		 pop	 ecx
  0001d	89 4d f8	 mov	 DWORD PTR _this$[ebp], ecx
  00020	b9 00 00 00 00	 mov	 ecx, OFFSET __8E23F663_vcruntime_exception@h
  00025	e8 00 00 00 00	 call	 @__CheckForDebuggerJustMyCode@4
  0002a	90		 npad	 1

; 143  :         : bad_alloc("bad array new length")

  0002b	68 00 00 00 00	 push	 OFFSET ??_C@_0BF@KINCDENJ@bad?5array?5new?5length@
  00030	8b 4d f8	 mov	 ecx, DWORD PTR _this$[ebp]
  00033	e8 00 00 00 00	 call	 ??0bad_alloc@std@@AAE@QBD@Z ; std::bad_alloc::bad_alloc
  00038	90		 npad	 1

; 144  :     {

  00039	8b 45 f8	 mov	 eax, DWORD PTR _this$[ebp]
  0003c	c7 00 00 00 00
	00		 mov	 DWORD PTR [eax], OFFSET ??_7bad_array_new_length@std@@6B@

; 145  :     }

  00042	8b 45 f8	 mov	 eax, DWORD PTR _this$[ebp]
  00045	5f		 pop	 edi
  00046	5e		 pop	 esi
  00047	5b		 pop	 ebx
  00048	81 c4 cc 00 00
	00		 add	 esp, 204		; 000000ccH
  0004e	3b ec		 cmp	 ebp, esp
  00050	e8 00 00 00 00	 call	 __RTC_CheckEsp
  00055	8b e5		 mov	 esp, ebp
  00057	5d		 pop	 ebp
  00058	c3		 ret	 0
??0bad_array_new_length@std@@QAE@XZ ENDP		; std::bad_array_new_length::bad_array_new_length
_TEXT	ENDS
; Function compile flags: /Odtp /RTCsu /ZI
;	COMDAT ??_Gbad_alloc@std@@UAEPAXI@Z
_TEXT	SEGMENT
_this$ = -8						; size = 4
___flags$ = 8						; size = 4
??_Gbad_alloc@std@@UAEPAXI@Z PROC			; std::bad_alloc::`scalar deleting destructor', COMDAT
; _this$ = ecx
  00000	55		 push	 ebp
  00001	8b ec		 mov	 ebp, esp
  00003	81 ec cc 00 00
	00		 sub	 esp, 204		; 000000ccH
  00009	53		 push	 ebx
  0000a	56		 push	 esi
  0000b	57		 push	 edi
  0000c	51		 push	 ecx
  0000d	8d 7d f4	 lea	 edi, DWORD PTR [ebp-12]
  00010	b9 03 00 00 00	 mov	 ecx, 3
  00015	b8 cc cc cc cc	 mov	 eax, -858993460		; ccccccccH
  0001a	f3 ab		 rep stosd
  0001c	59		 pop	 ecx
  0001d	89 4d f8	 mov	 DWORD PTR _this$[ebp], ecx
  00020	8b 4d f8	 mov	 ecx, DWORD PTR _this$[ebp]
  00023	e8 00 00 00 00	 call	 ??1bad_alloc@std@@UAE@XZ
  00028	90		 npad	 1
  00029	8b 45 08	 mov	 eax, DWORD PTR ___flags$[ebp]
  0002c	83 e0 01	 and	 eax, 1
  0002f	74 0e		 je	 SHORT $LN2@scalar
  00031	6a 0c		 push	 12			; 0000000cH
  00033	8b 45 f8	 mov	 eax, DWORD PTR _this$[ebp]
  00036	50		 push	 eax
  00037	e8 00 00 00 00	 call	 ??3@YAXPAXI@Z		; operator delete
  0003c	83 c4 08	 add	 esp, 8
$LN2@scalar:
  0003f	8b 45 f8	 mov	 eax, DWORD PTR _this$[ebp]
  00042	5f		 pop	 edi
  00043	5e		 pop	 esi
  00044	5b		 pop	 ebx
  00045	81 c4 cc 00 00
	00		 add	 esp, 204		; 000000ccH
  0004b	3b ec		 cmp	 ebp, esp
  0004d	e8 00 00 00 00	 call	 __RTC_CheckEsp
  00052	8b e5		 mov	 esp, ebp
  00054	5d		 pop	 ebp
  00055	c2 04 00	 ret	 4
??_Gbad_alloc@std@@UAEPAXI@Z ENDP			; std::bad_alloc::`scalar deleting destructor'
_TEXT	ENDS
; Function compile flags: /Odtp /RTCsu /ZI
;	COMDAT ??0bad_alloc@std@@QAE@ABV01@@Z
_TEXT	SEGMENT
_this$ = -8						; size = 4
___that$ = 8						; size = 4
??0bad_alloc@std@@QAE@ABV01@@Z PROC			; std::bad_alloc::bad_alloc, COMDAT
; _this$ = ecx
  00000	55		 push	 ebp
  00001	8b ec		 mov	 ebp, esp
  00003	81 ec cc 00 00
	00		 sub	 esp, 204		; 000000ccH
  00009	53		 push	 ebx
  0000a	56		 push	 esi
  0000b	57		 push	 edi
  0000c	51		 push	 ecx
  0000d	8d 7d f4	 lea	 edi, DWORD PTR [ebp-12]
  00010	b9 03 00 00 00	 mov	 ecx, 3
  00015	b8 cc cc cc cc	 mov	 eax, -858993460		; ccccccccH
  0001a	f3 ab		 rep stosd
  0001c	59		 pop	 ecx
  0001d	89 4d f8	 mov	 DWORD PTR _this$[ebp], ecx
  00020	8b 45 08	 mov	 eax, DWORD PTR ___that$[ebp]
  00023	50		 push	 eax
  00024	8b 4d f8	 mov	 ecx, DWORD PTR _this$[ebp]
  00027	e8 00 00 00 00	 call	 ??0exception@std@@QAE@ABV01@@Z ; std::exception::exception
  0002c	90		 npad	 1
  0002d	8b 45 f8	 mov	 eax, DWORD PTR _this$[ebp]
  00030	c7 00 00 00 00
	00		 mov	 DWORD PTR [eax], OFFSET ??_7bad_alloc@std@@6B@
  00036	8b 45 f8	 mov	 eax, DWORD PTR _this$[ebp]
  00039	5f		 pop	 edi
  0003a	5e		 pop	 esi
  0003b	5b		 pop	 ebx
  0003c	81 c4 cc 00 00
	00		 add	 esp, 204		; 000000ccH
  00042	3b ec		 cmp	 ebp, esp
  00044	e8 00 00 00 00	 call	 __RTC_CheckEsp
  00049	8b e5		 mov	 esp, ebp
  0004b	5d		 pop	 ebp
  0004c	c2 04 00	 ret	 4
??0bad_alloc@std@@QAE@ABV01@@Z ENDP			; std::bad_alloc::bad_alloc
_TEXT	ENDS
; Function compile flags: /Odtp /RTCsu /ZI
;	COMDAT ??1bad_alloc@std@@UAE@XZ
_TEXT	SEGMENT
_this$ = -8						; size = 4
??1bad_alloc@std@@UAE@XZ PROC				; std::bad_alloc::~bad_alloc, COMDAT
; _this$ = ecx
  00000	55		 push	 ebp
  00001	8b ec		 mov	 ebp, esp
  00003	81 ec cc 00 00
	00		 sub	 esp, 204		; 000000ccH
  00009	53		 push	 ebx
  0000a	56		 push	 esi
  0000b	57		 push	 edi
  0000c	51		 push	 ecx
  0000d	8d 7d f4	 lea	 edi, DWORD PTR [ebp-12]
  00010	b9 03 00 00 00	 mov	 ecx, 3
  00015	b8 cc cc cc cc	 mov	 eax, -858993460		; ccccccccH
  0001a	f3 ab		 rep stosd
  0001c	59		 pop	 ecx
  0001d	89 4d f8	 mov	 DWORD PTR _this$[ebp], ecx
  00020	8b 4d f8	 mov	 ecx, DWORD PTR _this$[ebp]
  00023	e8 00 00 00 00	 call	 ??1exception@std@@UAE@XZ ; std::exception::~exception
  00028	90		 npad	 1
  00029	5f		 pop	 edi
  0002a	5e		 pop	 esi
  0002b	5b		 pop	 ebx
  0002c	81 c4 cc 00 00
	00		 add	 esp, 204		; 000000ccH
  00032	3b ec		 cmp	 ebp, esp
  00034	e8 00 00 00 00	 call	 __RTC_CheckEsp
  00039	8b e5		 mov	 esp, ebp
  0003b	5d		 pop	 ebp
  0003c	c3		 ret	 0
??1bad_alloc@std@@UAE@XZ ENDP				; std::bad_alloc::~bad_alloc
_TEXT	ENDS
; Function compile flags: /Odtp /RTCsu /ZI
; File C:\Program Files\Microsoft Visual Studio\2022\Community\VC\Tools\MSVC\14.42.34433\include\vcruntime_exception.h
;	COMDAT ??0bad_alloc@std@@AAE@QBD@Z
_TEXT	SEGMENT
_this$ = -8						; size = 4
__Message$ = 8						; size = 4
??0bad_alloc@std@@AAE@QBD@Z PROC			; std::bad_alloc::bad_alloc, COMDAT
; _this$ = ecx

; 133  :     {

  00000	55		 push	 ebp
  00001	8b ec		 mov	 ebp, esp
  00003	81 ec cc 00 00
	00		 sub	 esp, 204		; 000000ccH
  00009	53		 push	 ebx
  0000a	56		 push	 esi
  0000b	57		 push	 edi
  0000c	51		 push	 ecx
  0000d	8d 7d f4	 lea	 edi, DWORD PTR [ebp-12]
  00010	b9 03 00 00 00	 mov	 ecx, 3
  00015	b8 cc cc cc cc	 mov	 eax, -858993460		; ccccccccH
  0001a	f3 ab		 rep stosd
  0001c	59		 pop	 ecx
  0001d	89 4d f8	 mov	 DWORD PTR _this$[ebp], ecx
  00020	b9 00 00 00 00	 mov	 ecx, OFFSET __8E23F663_vcruntime_exception@h
  00025	e8 00 00 00 00	 call	 @__CheckForDebuggerJustMyCode@4
  0002a	90		 npad	 1

; 132  :         : exception(_Message, 1)

  0002b	6a 01		 push	 1
  0002d	8b 45 08	 mov	 eax, DWORD PTR __Message$[ebp]
  00030	50		 push	 eax
  00031	8b 4d f8	 mov	 ecx, DWORD PTR _this$[ebp]
  00034	e8 00 00 00 00	 call	 ??0exception@std@@QAE@QBDH@Z ; std::exception::exception
  00039	90		 npad	 1

; 133  :     {

  0003a	8b 45 f8	 mov	 eax, DWORD PTR _this$[ebp]
  0003d	c7 00 00 00 00
	00		 mov	 DWORD PTR [eax], OFFSET ??_7bad_alloc@std@@6B@

; 134  :     }

  00043	8b 45 f8	 mov	 eax, DWORD PTR _this$[ebp]
  00046	5f		 pop	 edi
  00047	5e		 pop	 esi
  00048	5b		 pop	 ebx
  00049	81 c4 cc 00 00
	00		 add	 esp, 204		; 000000ccH
  0004f	3b ec		 cmp	 ebp, esp
  00051	e8 00 00 00 00	 call	 __RTC_CheckEsp
  00056	8b e5		 mov	 esp, ebp
  00058	5d		 pop	 ebp
  00059	c2 04 00	 ret	 4
??0bad_alloc@std@@AAE@QBD@Z ENDP			; std::bad_alloc::bad_alloc
_TEXT	ENDS
; Function compile flags: /Odtp /RTCsu /ZI
;	COMDAT ??_Gexception@std@@UAEPAXI@Z
_TEXT	SEGMENT
_this$ = -8						; size = 4
___flags$ = 8						; size = 4
??_Gexception@std@@UAEPAXI@Z PROC			; std::exception::`scalar deleting destructor', COMDAT
; _this$ = ecx
  00000	55		 push	 ebp
  00001	8b ec		 mov	 ebp, esp
  00003	81 ec cc 00 00
	00		 sub	 esp, 204		; 000000ccH
  00009	53		 push	 ebx
  0000a	56		 push	 esi
  0000b	57		 push	 edi
  0000c	51		 push	 ecx
  0000d	8d 7d f4	 lea	 edi, DWORD PTR [ebp-12]
  00010	b9 03 00 00 00	 mov	 ecx, 3
  00015	b8 cc cc cc cc	 mov	 eax, -858993460		; ccccccccH
  0001a	f3 ab		 rep stosd
  0001c	59		 pop	 ecx
  0001d	89 4d f8	 mov	 DWORD PTR _this$[ebp], ecx
  00020	8b 4d f8	 mov	 ecx, DWORD PTR _this$[ebp]
  00023	e8 00 00 00 00	 call	 ??1exception@std@@UAE@XZ ; std::exception::~exception
  00028	90		 npad	 1
  00029	8b 45 08	 mov	 eax, DWORD PTR ___flags$[ebp]
  0002c	83 e0 01	 and	 eax, 1
  0002f	74 0e		 je	 SHORT $LN2@scalar
  00031	6a 0c		 push	 12			; 0000000cH
  00033	8b 45 f8	 mov	 eax, DWORD PTR _this$[ebp]
  00036	50		 push	 eax
  00037	e8 00 00 00 00	 call	 ??3@YAXPAXI@Z		; operator delete
  0003c	83 c4 08	 add	 esp, 8
$LN2@scalar:
  0003f	8b 45 f8	 mov	 eax, DWORD PTR _this$[ebp]
  00042	5f		 pop	 edi
  00043	5e		 pop	 esi
  00044	5b		 pop	 ebx
  00045	81 c4 cc 00 00
	00		 add	 esp, 204		; 000000ccH
  0004b	3b ec		 cmp	 ebp, esp
  0004d	e8 00 00 00 00	 call	 __RTC_CheckEsp
  00052	8b e5		 mov	 esp, ebp
  00054	5d		 pop	 ebp
  00055	c2 04 00	 ret	 4
??_Gexception@std@@UAEPAXI@Z ENDP			; std::exception::`scalar deleting destructor'
_TEXT	ENDS
; Function compile flags: /Odtp /RTCsu /ZI
; File C:\Program Files\Microsoft Visual Studio\2022\Community\VC\Tools\MSVC\14.42.34433\include\vcruntime_exception.h
;	COMDAT ?what@exception@std@@UBEPBDXZ
_TEXT	SEGMENT
tv69 = -208						; size = 4
_this$ = -8						; size = 4
?what@exception@std@@UBEPBDXZ PROC			; std::exception::what, COMDAT
; _this$ = ecx

; 95   :     {

  00000	55		 push	 ebp
  00001	8b ec		 mov	 ebp, esp
  00003	81 ec d0 00 00
	00		 sub	 esp, 208		; 000000d0H
  00009	53		 push	 ebx
  0000a	56		 push	 esi
  0000b	57		 push	 edi
  0000c	51		 push	 ecx
  0000d	8d 7d f0	 lea	 edi, DWORD PTR [ebp-16]
  00010	b9 04 00 00 00	 mov	 ecx, 4
  00015	b8 cc cc cc cc	 mov	 eax, -858993460		; ccccccccH
  0001a	f3 ab		 rep stosd
  0001c	59		 pop	 ecx
  0001d	89 4d f8	 mov	 DWORD PTR _this$[ebp], ecx
  00020	b9 00 00 00 00	 mov	 ecx, OFFSET __8E23F663_vcruntime_exception@h
  00025	e8 00 00 00 00	 call	 @__CheckForDebuggerJustMyCode@4
  0002a	90		 npad	 1

; 96   :         return _Data._What ? _Data._What : "Unknown exception";

  0002b	8b 45 f8	 mov	 eax, DWORD PTR _this$[ebp]
  0002e	83 78 04 00	 cmp	 DWORD PTR [eax+4], 0
  00032	74 0e		 je	 SHORT $LN3@what
  00034	8b 4d f8	 mov	 ecx, DWORD PTR _this$[ebp]
  00037	8b 51 04	 mov	 edx, DWORD PTR [ecx+4]
  0003a	89 95 30 ff ff
	ff		 mov	 DWORD PTR tv69[ebp], edx
  00040	eb 0a		 jmp	 SHORT $LN4@what
$LN3@what:
  00042	c7 85 30 ff ff
	ff 00 00 00 00	 mov	 DWORD PTR tv69[ebp], OFFSET ??_C@_0BC@EOODALEL@Unknown?5exception@
$LN4@what:
  0004c	8b 85 30 ff ff
	ff		 mov	 eax, DWORD PTR tv69[ebp]

; 97   :     }

  00052	5f		 pop	 edi
  00053	5e		 pop	 esi
  00054	5b		 pop	 ebx
  00055	81 c4 d0 00 00
	00		 add	 esp, 208		; 000000d0H
  0005b	3b ec		 cmp	 ebp, esp
  0005d	e8 00 00 00 00	 call	 __RTC_CheckEsp
  00062	8b e5		 mov	 esp, ebp
  00064	5d		 pop	 ebp
  00065	c3		 ret	 0
?what@exception@std@@UBEPBDXZ ENDP			; std::exception::what
_TEXT	ENDS
; Function compile flags: /Odtp /RTCsu /ZI
; File C:\Program Files\Microsoft Visual Studio\2022\Community\VC\Tools\MSVC\14.42.34433\include\vcruntime_exception.h
;	COMDAT ??1exception@std@@UAE@XZ
_TEXT	SEGMENT
_this$ = -8						; size = 4
??1exception@std@@UAE@XZ PROC				; std::exception::~exception, COMDAT
; _this$ = ecx

; 90   :     {

  00000	55		 push	 ebp
  00001	8b ec		 mov	 ebp, esp
  00003	81 ec cc 00 00
	00		 sub	 esp, 204		; 000000ccH
  00009	53		 push	 ebx
  0000a	56		 push	 esi
  0000b	57		 push	 edi
  0000c	51		 push	 ecx
  0000d	8d 7d f4	 lea	 edi, DWORD PTR [ebp-12]
  00010	b9 03 00 00 00	 mov	 ecx, 3
  00015	b8 cc cc cc cc	 mov	 eax, -858993460		; ccccccccH
  0001a	f3 ab		 rep stosd
  0001c	59		 pop	 ecx
  0001d	89 4d f8	 mov	 DWORD PTR _this$[ebp], ecx
  00020	b9 00 00 00 00	 mov	 ecx, OFFSET __8E23F663_vcruntime_exception@h
  00025	e8 00 00 00 00	 call	 @__CheckForDebuggerJustMyCode@4
  0002a	90		 npad	 1
  0002b	8b 45 f8	 mov	 eax, DWORD PTR _this$[ebp]
  0002e	c7 00 00 00 00
	00		 mov	 DWORD PTR [eax], OFFSET ??_7exception@std@@6B@

; 91   :         __std_exception_destroy(&_Data);

  00034	8b 45 f8	 mov	 eax, DWORD PTR _this$[ebp]
  00037	83 c0 04	 add	 eax, 4
  0003a	50		 push	 eax
  0003b	e8 00 00 00 00	 call	 ___std_exception_destroy
  00040	83 c4 04	 add	 esp, 4

; 92   :     }

  00043	5f		 pop	 edi
  00044	5e		 pop	 esi
  00045	5b		 pop	 ebx
  00046	81 c4 cc 00 00
	00		 add	 esp, 204		; 000000ccH
  0004c	3b ec		 cmp	 ebp, esp
  0004e	e8 00 00 00 00	 call	 __RTC_CheckEsp
  00053	8b e5		 mov	 esp, ebp
  00055	5d		 pop	 ebp
  00056	c3		 ret	 0
??1exception@std@@UAE@XZ ENDP				; std::exception::~exception
_TEXT	ENDS
; Function compile flags: /Odtp /RTCsu /ZI
; File C:\Program Files\Microsoft Visual Studio\2022\Community\VC\Tools\MSVC\14.42.34433\include\vcruntime_exception.h
;	COMDAT ??0exception@std@@QAE@ABV01@@Z
_TEXT	SEGMENT
_this$ = -8						; size = 4
__Other$ = 8						; size = 4
??0exception@std@@QAE@ABV01@@Z PROC			; std::exception::exception, COMDAT
; _this$ = ecx

; 73   :     {

  00000	55		 push	 ebp
  00001	8b ec		 mov	 ebp, esp
  00003	81 ec cc 00 00
	00		 sub	 esp, 204		; 000000ccH
  00009	53		 push	 ebx
  0000a	56		 push	 esi
  0000b	57		 push	 edi
  0000c	51		 push	 ecx
  0000d	8d 7d f4	 lea	 edi, DWORD PTR [ebp-12]
  00010	b9 03 00 00 00	 mov	 ecx, 3
  00015	b8 cc cc cc cc	 mov	 eax, -858993460		; ccccccccH
  0001a	f3 ab		 rep stosd
  0001c	59		 pop	 ecx
  0001d	89 4d f8	 mov	 DWORD PTR _this$[ebp], ecx
  00020	b9 00 00 00 00	 mov	 ecx, OFFSET __8E23F663_vcruntime_exception@h
  00025	e8 00 00 00 00	 call	 @__CheckForDebuggerJustMyCode@4
  0002a	90		 npad	 1
  0002b	8b 45 f8	 mov	 eax, DWORD PTR _this$[ebp]
  0002e	c7 00 00 00 00
	00		 mov	 DWORD PTR [eax], OFFSET ??_7exception@std@@6B@

; 72   :         : _Data()

  00034	33 c0		 xor	 eax, eax
  00036	8b 4d f8	 mov	 ecx, DWORD PTR _this$[ebp]
  00039	83 c1 04	 add	 ecx, 4
  0003c	89 01		 mov	 DWORD PTR [ecx], eax
  0003e	89 41 04	 mov	 DWORD PTR [ecx+4], eax

; 74   :         __std_exception_copy(&_Other._Data, &_Data);

  00041	8b 45 f8	 mov	 eax, DWORD PTR _this$[ebp]
  00044	83 c0 04	 add	 eax, 4
  00047	50		 push	 eax
  00048	8b 4d 08	 mov	 ecx, DWORD PTR __Other$[ebp]
  0004b	83 c1 04	 add	 ecx, 4
  0004e	51		 push	 ecx
  0004f	e8 00 00 00 00	 call	 ___std_exception_copy
  00054	83 c4 08	 add	 esp, 8

; 75   :     }

  00057	8b 45 f8	 mov	 eax, DWORD PTR _this$[ebp]
  0005a	5f		 pop	 edi
  0005b	5e		 pop	 esi
  0005c	5b		 pop	 ebx
  0005d	81 c4 cc 00 00
	00		 add	 esp, 204		; 000000ccH
  00063	3b ec		 cmp	 ebp, esp
  00065	e8 00 00 00 00	 call	 __RTC_CheckEsp
  0006a	8b e5		 mov	 esp, ebp
  0006c	5d		 pop	 ebp
  0006d	c2 04 00	 ret	 4
??0exception@std@@QAE@ABV01@@Z ENDP			; std::exception::exception
_TEXT	ENDS
; Function compile flags: /Odtp /RTCsu /ZI
; File C:\Program Files\Microsoft Visual Studio\2022\Community\VC\Tools\MSVC\14.42.34433\include\vcruntime_exception.h
;	COMDAT ??0exception@std@@QAE@QBDH@Z
_TEXT	SEGMENT
_this$ = -8						; size = 4
__Message$ = 8						; size = 4
___formal$ = 12						; size = 4
??0exception@std@@QAE@QBDH@Z PROC			; std::exception::exception, COMDAT
; _this$ = ecx

; 67   :     {

  00000	55		 push	 ebp
  00001	8b ec		 mov	 ebp, esp
  00003	81 ec cc 00 00
	00		 sub	 esp, 204		; 000000ccH
  00009	53		 push	 ebx
  0000a	56		 push	 esi
  0000b	57		 push	 edi
  0000c	51		 push	 ecx
  0000d	8d 7d f4	 lea	 edi, DWORD PTR [ebp-12]
  00010	b9 03 00 00 00	 mov	 ecx, 3
  00015	b8 cc cc cc cc	 mov	 eax, -858993460		; ccccccccH
  0001a	f3 ab		 rep stosd
  0001c	59		 pop	 ecx
  0001d	89 4d f8	 mov	 DWORD PTR _this$[ebp], ecx
  00020	b9 00 00 00 00	 mov	 ecx, OFFSET __8E23F663_vcruntime_exception@h
  00025	e8 00 00 00 00	 call	 @__CheckForDebuggerJustMyCode@4
  0002a	90		 npad	 1
  0002b	8b 45 f8	 mov	 eax, DWORD PTR _this$[ebp]
  0002e	c7 00 00 00 00
	00		 mov	 DWORD PTR [eax], OFFSET ??_7exception@std@@6B@

; 66   :         : _Data()

  00034	33 c0		 xor	 eax, eax
  00036	8b 4d f8	 mov	 ecx, DWORD PTR _this$[ebp]
  00039	83 c1 04	 add	 ecx, 4
  0003c	89 01		 mov	 DWORD PTR [ecx], eax
  0003e	89 41 04	 mov	 DWORD PTR [ecx+4], eax

; 68   :         _Data._What = _Message;

  00041	8b 45 f8	 mov	 eax, DWORD PTR _this$[ebp]
  00044	8b 4d 08	 mov	 ecx, DWORD PTR __Message$[ebp]
  00047	89 48 04	 mov	 DWORD PTR [eax+4], ecx

; 69   :     }

  0004a	8b 45 f8	 mov	 eax, DWORD PTR _this$[ebp]
  0004d	5f		 pop	 edi
  0004e	5e		 pop	 esi
  0004f	5b		 pop	 ebx
  00050	81 c4 cc 00 00
	00		 add	 esp, 204		; 000000ccH
  00056	3b ec		 cmp	 ebp, esp
  00058	e8 00 00 00 00	 call	 __RTC_CheckEsp
  0005d	8b e5		 mov	 esp, ebp
  0005f	5d		 pop	 ebp
  00060	c2 08 00	 ret	 8
??0exception@std@@QAE@QBDH@Z ENDP			; std::exception::exception
_TEXT	ENDS
; Function compile flags: /Odtp /RTCsu /ZI
; File C:\Program Files\Microsoft Visual Studio\2022\Community\VC\Tools\MSVC\14.42.34433\include\__msvc_string_view.hpp
;	COMDAT ?eof@?$_Narrow_char_traits@DH@std@@SAHXZ
_TEXT	SEGMENT
?eof@?$_Narrow_char_traits@DH@std@@SAHXZ PROC		; std::_Narrow_char_traits<char,int>::eof, COMDAT

; 456  :     _NODISCARD static constexpr int_type eof() noexcept {

  00000	55		 push	 ebp
  00001	8b ec		 mov	 ebp, esp
  00003	81 ec c0 00 00
	00		 sub	 esp, 192		; 000000c0H
  00009	53		 push	 ebx
  0000a	56		 push	 esi
  0000b	57		 push	 edi
  0000c	8b fd		 mov	 edi, ebp
  0000e	33 c9		 xor	 ecx, ecx
  00010	b8 cc cc cc cc	 mov	 eax, -858993460		; ccccccccH
  00015	f3 ab		 rep stosd
  00017	b9 00 00 00 00	 mov	 ecx, OFFSET __39B162D3___msvc_string_view@hpp
  0001c	e8 00 00 00 00	 call	 @__CheckForDebuggerJustMyCode@4
  00021	90		 npad	 1

; 457  :         return static_cast<int_type>(EOF);

  00022	83 c8 ff	 or	 eax, -1

; 458  :     }

  00025	5f		 pop	 edi
  00026	5e		 pop	 esi
  00027	5b		 pop	 ebx
  00028	81 c4 c0 00 00
	00		 add	 esp, 192		; 000000c0H
  0002e	3b ec		 cmp	 ebp, esp
  00030	e8 00 00 00 00	 call	 __RTC_CheckEsp
  00035	8b e5		 mov	 esp, ebp
  00037	5d		 pop	 ebp
  00038	c3		 ret	 0
?eof@?$_Narrow_char_traits@DH@std@@SAHXZ ENDP		; std::_Narrow_char_traits<char,int>::eof
_TEXT	ENDS
; Function compile flags: /Odtp /RTCsu /ZI
; File C:\Program Files\Microsoft Visual Studio\2022\Community\VC\Tools\MSVC\14.42.34433\include\__msvc_string_view.hpp
;	COMDAT ?eq_int_type@?$_Narrow_char_traits@DH@std@@SA_NHH@Z
_TEXT	SEGMENT
tv65 = -196						; size = 4
__Left$ = 8						; size = 4
__Right$ = 12						; size = 4
?eq_int_type@?$_Narrow_char_traits@DH@std@@SA_NHH@Z PROC ; std::_Narrow_char_traits<char,int>::eq_int_type, COMDAT

; 448  :     _NODISCARD static constexpr bool eq_int_type(const int_type _Left, const int_type _Right) noexcept {

  00000	55		 push	 ebp
  00001	8b ec		 mov	 ebp, esp
  00003	81 ec c4 00 00
	00		 sub	 esp, 196		; 000000c4H
  00009	53		 push	 ebx
  0000a	56		 push	 esi
  0000b	57		 push	 edi
  0000c	8d 7d fc	 lea	 edi, DWORD PTR [ebp-4]
  0000f	b9 01 00 00 00	 mov	 ecx, 1
  00014	b8 cc cc cc cc	 mov	 eax, -858993460		; ccccccccH
  00019	f3 ab		 rep stosd
  0001b	b9 00 00 00 00	 mov	 ecx, OFFSET __39B162D3___msvc_string_view@hpp
  00020	e8 00 00 00 00	 call	 @__CheckForDebuggerJustMyCode@4
  00025	90		 npad	 1

; 449  :         return _Left == _Right;

  00026	8b 45 08	 mov	 eax, DWORD PTR __Left$[ebp]
  00029	3b 45 0c	 cmp	 eax, DWORD PTR __Right$[ebp]
  0002c	75 0c		 jne	 SHORT $LN3@eq_int_typ
  0002e	c7 85 3c ff ff
	ff 01 00 00 00	 mov	 DWORD PTR tv65[ebp], 1
  00038	eb 0a		 jmp	 SHORT $LN4@eq_int_typ
$LN3@eq_int_typ:
  0003a	c7 85 3c ff ff
	ff 00 00 00 00	 mov	 DWORD PTR tv65[ebp], 0
$LN4@eq_int_typ:
  00044	0f b6 85 3c ff
	ff ff		 movzx	 eax, BYTE PTR tv65[ebp]

; 450  :     }

  0004b	5f		 pop	 edi
  0004c	5e		 pop	 esi
  0004d	5b		 pop	 ebx
  0004e	81 c4 c4 00 00
	00		 add	 esp, 196		; 000000c4H
  00054	3b ec		 cmp	 ebp, esp
  00056	e8 00 00 00 00	 call	 __RTC_CheckEsp
  0005b	8b e5		 mov	 esp, ebp
  0005d	5d		 pop	 ebp
  0005e	c3		 ret	 0
?eq_int_type@?$_Narrow_char_traits@DH@std@@SA_NHH@Z ENDP ; std::_Narrow_char_traits<char,int>::eq_int_type
_TEXT	ENDS
; Function compile flags: /Odtp /RTCsu /ZI
; File C:\Program Files\Microsoft Visual Studio\2022\Community\VC\Tools\MSVC\14.42.34433\include\__msvc_string_view.hpp
;	COMDAT ?assign@?$_Narrow_char_traits@DH@std@@SAXAADABD@Z
_TEXT	SEGMENT
__Left$ = 8						; size = 4
__Right$ = 12						; size = 4
?assign@?$_Narrow_char_traits@DH@std@@SAXAADABD@Z PROC	; std::_Narrow_char_traits<char,int>::assign, COMDAT

; 423  :     static _CONSTEXPR17 void assign(_Elem& _Left, const _Elem& _Right) noexcept {

  00000	55		 push	 ebp
  00001	8b ec		 mov	 ebp, esp
  00003	81 ec c0 00 00
	00		 sub	 esp, 192		; 000000c0H
  00009	53		 push	 ebx
  0000a	56		 push	 esi
  0000b	57		 push	 edi
  0000c	8b fd		 mov	 edi, ebp
  0000e	33 c9		 xor	 ecx, ecx
  00010	b8 cc cc cc cc	 mov	 eax, -858993460		; ccccccccH
  00015	f3 ab		 rep stosd
  00017	b9 00 00 00 00	 mov	 ecx, OFFSET __39B162D3___msvc_string_view@hpp
  0001c	e8 00 00 00 00	 call	 @__CheckForDebuggerJustMyCode@4
  00021	90		 npad	 1

; 424  : #if _HAS_CXX20
; 425  :         if (_STD is_constant_evaluated()) {
; 426  :             return _Primary_char_traits::assign(_Left, _Right);
; 427  :         }
; 428  : #endif // _HAS_CXX20
; 429  :         _Left = _Right;

  00022	8b 45 08	 mov	 eax, DWORD PTR __Left$[ebp]
  00025	8b 4d 0c	 mov	 ecx, DWORD PTR __Right$[ebp]
  00028	8a 11		 mov	 dl, BYTE PTR [ecx]
  0002a	88 10		 mov	 BYTE PTR [eax], dl

; 430  :     }

  0002c	5f		 pop	 edi
  0002d	5e		 pop	 esi
  0002e	5b		 pop	 ebx
  0002f	81 c4 c0 00 00
	00		 add	 esp, 192		; 000000c0H
  00035	3b ec		 cmp	 ebp, esp
  00037	e8 00 00 00 00	 call	 __RTC_CheckEsp
  0003c	8b e5		 mov	 esp, ebp
  0003e	5d		 pop	 ebp
  0003f	c3		 ret	 0
?assign@?$_Narrow_char_traits@DH@std@@SAXAADABD@Z ENDP	; std::_Narrow_char_traits<char,int>::assign
_TEXT	ENDS
; Function compile flags: /Odtp /RTCsu /ZI
; File C:\Program Files\Microsoft Visual Studio\2022\Community\VC\Tools\MSVC\14.42.34433\include\__msvc_string_view.hpp
;	COMDAT ?length@?$_Narrow_char_traits@DH@std@@SAIQBD@Z
_TEXT	SEGMENT
__First$ = 8						; size = 4
?length@?$_Narrow_char_traits@DH@std@@SAIQBD@Z PROC	; std::_Narrow_char_traits<char,int>::length, COMDAT

; 370  :     _NODISCARD static _CONSTEXPR17 size_t length(_In_z_ const _Elem* const _First) noexcept /* strengthened */ {

  00000	55		 push	 ebp
  00001	8b ec		 mov	 ebp, esp
  00003	81 ec c0 00 00
	00		 sub	 esp, 192		; 000000c0H
  00009	53		 push	 ebx
  0000a	56		 push	 esi
  0000b	57		 push	 edi
  0000c	8b fd		 mov	 edi, ebp
  0000e	33 c9		 xor	 ecx, ecx
  00010	b8 cc cc cc cc	 mov	 eax, -858993460		; ccccccccH
  00015	f3 ab		 rep stosd
  00017	b9 00 00 00 00	 mov	 ecx, OFFSET __39B162D3___msvc_string_view@hpp
  0001c	e8 00 00 00 00	 call	 @__CheckForDebuggerJustMyCode@4
  00021	90		 npad	 1

; 371  :         // find length of null-terminated string
; 372  : #if _HAS_CXX17
; 373  : #ifdef __cpp_char8_t
; 374  :         if constexpr (is_same_v<_Elem, char8_t>) {
; 375  : #if _HAS_U8_INTRINSICS
; 376  :             return __builtin_u8strlen(_First);
; 377  : #else // ^^^ use u8 intrinsics / no u8 intrinsics vvv
; 378  :             return _Primary_char_traits::length(_First);
; 379  : #endif // ^^^ no u8 intrinsics ^^^
; 380  :         } else
; 381  : #endif // defined(__cpp_char8_t)
; 382  :         {
; 383  :             return __builtin_strlen(_First);
; 384  :         }
; 385  : #else // ^^^ _HAS_CXX17 / !_HAS_CXX17 vvv
; 386  :         return _CSTD strlen(reinterpret_cast<const char*>(_First));

  00022	8b 45 08	 mov	 eax, DWORD PTR __First$[ebp]
  00025	50		 push	 eax
  00026	e8 00 00 00 00	 call	 _strlen
  0002b	83 c4 04	 add	 esp, 4

; 387  : #endif // ^^^ !_HAS_CXX17 ^^^
; 388  :     }

  0002e	5f		 pop	 edi
  0002f	5e		 pop	 esi
  00030	5b		 pop	 ebx
  00031	81 c4 c0 00 00
	00		 add	 esp, 192		; 000000c0H
  00037	3b ec		 cmp	 ebp, esp
  00039	e8 00 00 00 00	 call	 __RTC_CheckEsp
  0003e	8b e5		 mov	 esp, ebp
  00040	5d		 pop	 ebp
  00041	c3		 ret	 0
?length@?$_Narrow_char_traits@DH@std@@SAIQBD@Z ENDP	; std::_Narrow_char_traits<char,int>::length
_TEXT	ENDS
; Function compile flags: /Odtp /RTCsu /ZI
; File C:\Program Files\Microsoft Visual Studio\2022\Community\VC\Tools\MSVC\14.42.34433\include\__msvc_string_view.hpp
;	COMDAT ?copy@?$_Char_traits@DH@std@@SAPADQADQBDI@Z
_TEXT	SEGMENT
__First1$ = 8						; size = 4
__First2$ = 12						; size = 4
__Count$ = 16						; size = 4
?copy@?$_Char_traits@DH@std@@SAPADQADQBDI@Z PROC	; std::_Char_traits<char,int>::copy, COMDAT

; 43   :         _In_reads_(_Count) const _Elem* const _First2, const size_t _Count) noexcept /* strengthened */ {

  00000	55		 push	 ebp
  00001	8b ec		 mov	 ebp, esp
  00003	81 ec c0 00 00
	00		 sub	 esp, 192		; 000000c0H
  00009	53		 push	 ebx
  0000a	56		 push	 esi
  0000b	57		 push	 edi
  0000c	8b fd		 mov	 edi, ebp
  0000e	33 c9		 xor	 ecx, ecx
  00010	b8 cc cc cc cc	 mov	 eax, -858993460		; ccccccccH
  00015	f3 ab		 rep stosd
  00017	b9 00 00 00 00	 mov	 ecx, OFFSET __39B162D3___msvc_string_view@hpp
  0001c	e8 00 00 00 00	 call	 @__CheckForDebuggerJustMyCode@4
  00021	90		 npad	 1

; 44   :         // copy [_First2, _First2 + _Count) to [_First1, ...)
; 45   : #if _HAS_MEMCPY_MEMMOVE_INTRINSICS
; 46   :         __builtin_memcpy(_First1, _First2, _Count * sizeof(_Elem));
; 47   : #else // ^^^ _HAS_MEMCPY_MEMMOVE_INTRINSICS / !_HAS_MEMCPY_MEMMOVE_INTRINSICS vvv
; 48   : #if _HAS_CXX20
; 49   :         if (_STD is_constant_evaluated()) {
; 50   :             // pre: [_First1, _First1 + _Count) and [_First2, _First2 + _Count) do not overlap
; 51   :             for (size_t _Idx = 0; _Idx != _Count; ++_Idx) {
; 52   :                 _First1[_Idx] = _First2[_Idx];
; 53   :             }
; 54   : 
; 55   :             return _First1;
; 56   :         }
; 57   : #endif // _HAS_CXX20
; 58   : 
; 59   :         _CSTD memcpy(_First1, _First2, _Count * sizeof(_Elem));

  00022	8b 45 10	 mov	 eax, DWORD PTR __Count$[ebp]
  00025	50		 push	 eax
  00026	8b 4d 0c	 mov	 ecx, DWORD PTR __First2$[ebp]
  00029	51		 push	 ecx
  0002a	8b 55 08	 mov	 edx, DWORD PTR __First1$[ebp]
  0002d	52		 push	 edx
  0002e	e8 00 00 00 00	 call	 _memcpy
  00033	83 c4 0c	 add	 esp, 12			; 0000000cH

; 60   : #endif // ^^^ !_HAS_MEMCPY_MEMMOVE_INTRINSICS ^^^
; 61   : 
; 62   :         return _First1;

  00036	8b 45 08	 mov	 eax, DWORD PTR __First1$[ebp]

; 63   :     }

  00039	5f		 pop	 edi
  0003a	5e		 pop	 esi
  0003b	5b		 pop	 ebx
  0003c	81 c4 c0 00 00
	00		 add	 esp, 192		; 000000c0H
  00042	3b ec		 cmp	 ebp, esp
  00044	e8 00 00 00 00	 call	 __RTC_CheckEsp
  00049	8b e5		 mov	 esp, ebp
  0004b	5d		 pop	 ebp
  0004c	c3		 ret	 0
?copy@?$_Char_traits@DH@std@@SAPADQADQBDI@Z ENDP	; std::_Char_traits<char,int>::copy
_TEXT	ENDS
; Function compile flags: /Odtp /RTCsu /ZI
; File C:\Program Files\Microsoft Visual Studio\2022\Community\VC\Tools\MSVC\14.42.34433\include\vcruntime_new.h
;	COMDAT ??2@YAPAXIPAX@Z
_TEXT	SEGMENT
__Size$ = 8						; size = 4
__Where$ = 12						; size = 4
??2@YAPAXIPAX@Z PROC					; operator new, COMDAT

; 164  :     {

  00000	55		 push	 ebp
  00001	8b ec		 mov	 ebp, esp
  00003	81 ec c0 00 00
	00		 sub	 esp, 192		; 000000c0H
  00009	53		 push	 ebx
  0000a	56		 push	 esi
  0000b	57		 push	 edi
  0000c	8b fd		 mov	 edi, ebp
  0000e	33 c9		 xor	 ecx, ecx
  00010	b8 cc cc cc cc	 mov	 eax, -858993460		; ccccccccH
  00015	f3 ab		 rep stosd
  00017	b9 00 00 00 00	 mov	 ecx, OFFSET __BCF39F11_vcruntime_new@h
  0001c	e8 00 00 00 00	 call	 @__CheckForDebuggerJustMyCode@4
  00021	90		 npad	 1

; 165  :         (void)_Size;
; 166  :         return _Where;

  00022	8b 45 0c	 mov	 eax, DWORD PTR __Where$[ebp]

; 167  :     }

  00025	5f		 pop	 edi
  00026	5e		 pop	 esi
  00027	5b		 pop	 ebx
  00028	81 c4 c0 00 00
	00		 add	 esp, 192		; 000000c0H
  0002e	3b ec		 cmp	 ebp, esp
  00030	e8 00 00 00 00	 call	 __RTC_CheckEsp
  00035	8b e5		 mov	 esp, ebp
  00037	5d		 pop	 ebp
  00038	c3		 ret	 0
??2@YAPAXIPAX@Z ENDP					; operator new
_TEXT	ENDS
; Function compile flags: /Odtp /RTCsu /ZI
; File C:\Users\gvent\OneDrive\Desktop\KPO\Lab1\Lab1\MonthUtils.cpp
;	COMDAT ?__empty_global_delete@@YAXPAXI@Z
_TEXT	SEGMENT
___formal$ = 8						; size = 4
___formal$ = 12						; size = 4
?__empty_global_delete@@YAXPAXI@Z PROC			; __empty_global_delete, COMDAT

  00000	55		 push	 ebp
  00001	8b ec		 mov	 ebp, esp
  00003	81 ec c0 00 00
	00		 sub	 esp, 192		; 000000c0H
  00009	53		 push	 ebx
  0000a	56		 push	 esi
  0000b	57		 push	 edi
  0000c	8b fd		 mov	 edi, ebp
  0000e	33 c9		 xor	 ecx, ecx
  00010	b8 cc cc cc cc	 mov	 eax, -858993460		; ccccccccH
  00015	f3 ab		 rep stosd
  00017	b9 00 00 00 00	 mov	 ecx, OFFSET __E5840863_MonthUtils@cpp
  0001c	e8 00 00 00 00	 call	 @__CheckForDebuggerJustMyCode@4
  00021	90		 npad	 1
  00022	5f		 pop	 edi
  00023	5e		 pop	 esi
  00024	5b		 pop	 ebx
  00025	81 c4 c0 00 00
	00		 add	 esp, 192		; 000000c0H
  0002b	3b ec		 cmp	 ebp, esp
  0002d	e8 00 00 00 00	 call	 __RTC_CheckEsp
  00032	8b e5		 mov	 esp, ebp
  00034	5d		 pop	 ebp
  00035	c3		 ret	 0
?__empty_global_delete@@YAXPAXI@Z ENDP			; __empty_global_delete
_TEXT	ENDS
; Function compile flags: /Odtp /RTCsu /ZI
; File C:\Users\gvent\OneDrive\Desktop\KPO\Lab1\Lab1\MonthUtils.cpp
;	COMDAT ?__empty_global_delete@@YAXPAX@Z
_TEXT	SEGMENT
___formal$ = 8						; size = 4
?__empty_global_delete@@YAXPAX@Z PROC			; __empty_global_delete, COMDAT

  00000	55		 push	 ebp
  00001	8b ec		 mov	 ebp, esp
  00003	81 ec c0 00 00
	00		 sub	 esp, 192		; 000000c0H
  00009	53		 push	 ebx
  0000a	56		 push	 esi
  0000b	57		 push	 edi
  0000c	8b fd		 mov	 edi, ebp
  0000e	33 c9		 xor	 ecx, ecx
  00010	b8 cc cc cc cc	 mov	 eax, -858993460		; ccccccccH
  00015	f3 ab		 rep stosd
  00017	b9 00 00 00 00	 mov	 ecx, OFFSET __E5840863_MonthUtils@cpp
  0001c	e8 00 00 00 00	 call	 @__CheckForDebuggerJustMyCode@4
  00021	90		 npad	 1
  00022	5f		 pop	 edi
  00023	5e		 pop	 esi
  00024	5b		 pop	 ebx
  00025	81 c4 c0 00 00
	00		 add	 esp, 192		; 000000c0H
  0002b	3b ec		 cmp	 ebp, esp
  0002d	e8 00 00 00 00	 call	 __RTC_CheckEsp
  00032	8b e5		 mov	 esp, ebp
  00034	5d		 pop	 ebp
  00035	c3		 ret	 0
?__empty_global_delete@@YAXPAX@Z ENDP			; __empty_global_delete
_TEXT	ENDS
END
